ARM GAS  C:\Users\aniru.000\AppData\Local\Temp\ccGZAzIF.s 			page 1


   1              		.cpu cortex-m4
   2              		.arch armv7e-m
   3              		.fpu fpv4-sp-d16
   4              		.eabi_attribute 27, 1
   5              		.eabi_attribute 28, 1
   6              		.eabi_attribute 20, 1
   7              		.eabi_attribute 21, 1
   8              		.eabi_attribute 23, 3
   9              		.eabi_attribute 24, 1
  10              		.eabi_attribute 25, 1
  11              		.eabi_attribute 26, 1
  12              		.eabi_attribute 30, 1
  13              		.eabi_attribute 34, 1
  14              		.eabi_attribute 18, 4
  15              		.file	"stm32g4xx_hal_rcc_ex.c"
  16              		.text
  17              	.Ltext0:
  18              		.cfi_sections	.debug_frame
  19              		.file 1 "Drivers/STM32G4xx_HAL_Driver/Src/stm32g4xx_hal_rcc_ex.c"
  20              		.section	.text.HAL_RCCEx_PeriphCLKConfig,"ax",%progbits
  21              		.align	1
  22              		.global	HAL_RCCEx_PeriphCLKConfig
  23              		.syntax unified
  24              		.thumb
  25              		.thumb_func
  27              	HAL_RCCEx_PeriphCLKConfig:
  28              	.LVL0:
  29              	.LFB132:
   1:Drivers/STM32G4xx_HAL_Driver/Src/stm32g4xx_hal_rcc_ex.c **** /**
   2:Drivers/STM32G4xx_HAL_Driver/Src/stm32g4xx_hal_rcc_ex.c ****   ******************************************************************************
   3:Drivers/STM32G4xx_HAL_Driver/Src/stm32g4xx_hal_rcc_ex.c ****   * @file    stm32g4xx_hal_rcc_ex.c
   4:Drivers/STM32G4xx_HAL_Driver/Src/stm32g4xx_hal_rcc_ex.c ****   * @author  MCD Application Team
   5:Drivers/STM32G4xx_HAL_Driver/Src/stm32g4xx_hal_rcc_ex.c ****   * @brief   Extended RCC HAL module driver.
   6:Drivers/STM32G4xx_HAL_Driver/Src/stm32g4xx_hal_rcc_ex.c ****   *          This file provides firmware functions to manage the following
   7:Drivers/STM32G4xx_HAL_Driver/Src/stm32g4xx_hal_rcc_ex.c ****   *          functionalities RCC extended peripheral:
   8:Drivers/STM32G4xx_HAL_Driver/Src/stm32g4xx_hal_rcc_ex.c ****   *           + Extended Peripheral Control functions
   9:Drivers/STM32G4xx_HAL_Driver/Src/stm32g4xx_hal_rcc_ex.c ****   *           + Extended Clock management functions
  10:Drivers/STM32G4xx_HAL_Driver/Src/stm32g4xx_hal_rcc_ex.c ****   *           + Extended Clock Recovery System Control functions
  11:Drivers/STM32G4xx_HAL_Driver/Src/stm32g4xx_hal_rcc_ex.c ****   *
  12:Drivers/STM32G4xx_HAL_Driver/Src/stm32g4xx_hal_rcc_ex.c ****   ******************************************************************************
  13:Drivers/STM32G4xx_HAL_Driver/Src/stm32g4xx_hal_rcc_ex.c ****   * @attention
  14:Drivers/STM32G4xx_HAL_Driver/Src/stm32g4xx_hal_rcc_ex.c ****   *
  15:Drivers/STM32G4xx_HAL_Driver/Src/stm32g4xx_hal_rcc_ex.c ****   * Copyright (c) 2019 STMicroelectronics.
  16:Drivers/STM32G4xx_HAL_Driver/Src/stm32g4xx_hal_rcc_ex.c ****   * All rights reserved.
  17:Drivers/STM32G4xx_HAL_Driver/Src/stm32g4xx_hal_rcc_ex.c ****   *
  18:Drivers/STM32G4xx_HAL_Driver/Src/stm32g4xx_hal_rcc_ex.c ****   * This software is licensed under terms that can be found in the LICENSE file in
  19:Drivers/STM32G4xx_HAL_Driver/Src/stm32g4xx_hal_rcc_ex.c ****   * the root directory of this software component.
  20:Drivers/STM32G4xx_HAL_Driver/Src/stm32g4xx_hal_rcc_ex.c ****   * If no LICENSE file comes with this software, it is provided AS-IS.
  21:Drivers/STM32G4xx_HAL_Driver/Src/stm32g4xx_hal_rcc_ex.c ****   ******************************************************************************
  22:Drivers/STM32G4xx_HAL_Driver/Src/stm32g4xx_hal_rcc_ex.c ****   */
  23:Drivers/STM32G4xx_HAL_Driver/Src/stm32g4xx_hal_rcc_ex.c **** 
  24:Drivers/STM32G4xx_HAL_Driver/Src/stm32g4xx_hal_rcc_ex.c **** /* Includes ------------------------------------------------------------------*/
  25:Drivers/STM32G4xx_HAL_Driver/Src/stm32g4xx_hal_rcc_ex.c **** #include "stm32g4xx_hal.h"
  26:Drivers/STM32G4xx_HAL_Driver/Src/stm32g4xx_hal_rcc_ex.c **** 
  27:Drivers/STM32G4xx_HAL_Driver/Src/stm32g4xx_hal_rcc_ex.c **** /** @addtogroup STM32G4xx_HAL_Driver
  28:Drivers/STM32G4xx_HAL_Driver/Src/stm32g4xx_hal_rcc_ex.c ****   * @{
  29:Drivers/STM32G4xx_HAL_Driver/Src/stm32g4xx_hal_rcc_ex.c ****   */
ARM GAS  C:\Users\aniru.000\AppData\Local\Temp\ccGZAzIF.s 			page 2


  30:Drivers/STM32G4xx_HAL_Driver/Src/stm32g4xx_hal_rcc_ex.c **** 
  31:Drivers/STM32G4xx_HAL_Driver/Src/stm32g4xx_hal_rcc_ex.c **** /** @defgroup RCCEx RCCEx
  32:Drivers/STM32G4xx_HAL_Driver/Src/stm32g4xx_hal_rcc_ex.c ****   * @brief RCC Extended HAL module driver
  33:Drivers/STM32G4xx_HAL_Driver/Src/stm32g4xx_hal_rcc_ex.c ****   * @{
  34:Drivers/STM32G4xx_HAL_Driver/Src/stm32g4xx_hal_rcc_ex.c ****   */
  35:Drivers/STM32G4xx_HAL_Driver/Src/stm32g4xx_hal_rcc_ex.c **** 
  36:Drivers/STM32G4xx_HAL_Driver/Src/stm32g4xx_hal_rcc_ex.c **** #ifdef HAL_RCC_MODULE_ENABLED
  37:Drivers/STM32G4xx_HAL_Driver/Src/stm32g4xx_hal_rcc_ex.c **** 
  38:Drivers/STM32G4xx_HAL_Driver/Src/stm32g4xx_hal_rcc_ex.c **** /* Private typedef -----------------------------------------------------------*/
  39:Drivers/STM32G4xx_HAL_Driver/Src/stm32g4xx_hal_rcc_ex.c **** /* Private defines -----------------------------------------------------------*/
  40:Drivers/STM32G4xx_HAL_Driver/Src/stm32g4xx_hal_rcc_ex.c **** /** @defgroup RCCEx_Private_Constants RCCEx Private Constants
  41:Drivers/STM32G4xx_HAL_Driver/Src/stm32g4xx_hal_rcc_ex.c ****  * @{
  42:Drivers/STM32G4xx_HAL_Driver/Src/stm32g4xx_hal_rcc_ex.c ****  */
  43:Drivers/STM32G4xx_HAL_Driver/Src/stm32g4xx_hal_rcc_ex.c **** #define PLL_TIMEOUT_VALUE        2U                /* 2 ms (minimum Tick + 1) */
  44:Drivers/STM32G4xx_HAL_Driver/Src/stm32g4xx_hal_rcc_ex.c **** 
  45:Drivers/STM32G4xx_HAL_Driver/Src/stm32g4xx_hal_rcc_ex.c **** #define DIVIDER_P_UPDATE          0U
  46:Drivers/STM32G4xx_HAL_Driver/Src/stm32g4xx_hal_rcc_ex.c **** #define DIVIDER_Q_UPDATE          1U
  47:Drivers/STM32G4xx_HAL_Driver/Src/stm32g4xx_hal_rcc_ex.c **** #define DIVIDER_R_UPDATE          2U
  48:Drivers/STM32G4xx_HAL_Driver/Src/stm32g4xx_hal_rcc_ex.c **** 
  49:Drivers/STM32G4xx_HAL_Driver/Src/stm32g4xx_hal_rcc_ex.c **** #define __LSCO_CLK_ENABLE()       __HAL_RCC_GPIOA_CLK_ENABLE()
  50:Drivers/STM32G4xx_HAL_Driver/Src/stm32g4xx_hal_rcc_ex.c **** #define LSCO_GPIO_PORT            GPIOA
  51:Drivers/STM32G4xx_HAL_Driver/Src/stm32g4xx_hal_rcc_ex.c **** #define LSCO_PIN                  GPIO_PIN_2
  52:Drivers/STM32G4xx_HAL_Driver/Src/stm32g4xx_hal_rcc_ex.c **** /**
  53:Drivers/STM32G4xx_HAL_Driver/Src/stm32g4xx_hal_rcc_ex.c ****   * @}
  54:Drivers/STM32G4xx_HAL_Driver/Src/stm32g4xx_hal_rcc_ex.c ****   */
  55:Drivers/STM32G4xx_HAL_Driver/Src/stm32g4xx_hal_rcc_ex.c **** 
  56:Drivers/STM32G4xx_HAL_Driver/Src/stm32g4xx_hal_rcc_ex.c **** /* Private macros ------------------------------------------------------------*/
  57:Drivers/STM32G4xx_HAL_Driver/Src/stm32g4xx_hal_rcc_ex.c **** /* Private variables ---------------------------------------------------------*/
  58:Drivers/STM32G4xx_HAL_Driver/Src/stm32g4xx_hal_rcc_ex.c **** /* Private function prototypes -----------------------------------------------*/
  59:Drivers/STM32G4xx_HAL_Driver/Src/stm32g4xx_hal_rcc_ex.c **** /** @defgroup RCCEx_Private_Functions RCCEx Private Functions
  60:Drivers/STM32G4xx_HAL_Driver/Src/stm32g4xx_hal_rcc_ex.c ****  * @{
  61:Drivers/STM32G4xx_HAL_Driver/Src/stm32g4xx_hal_rcc_ex.c ****  */
  62:Drivers/STM32G4xx_HAL_Driver/Src/stm32g4xx_hal_rcc_ex.c **** 
  63:Drivers/STM32G4xx_HAL_Driver/Src/stm32g4xx_hal_rcc_ex.c **** /**
  64:Drivers/STM32G4xx_HAL_Driver/Src/stm32g4xx_hal_rcc_ex.c ****   * @}
  65:Drivers/STM32G4xx_HAL_Driver/Src/stm32g4xx_hal_rcc_ex.c ****   */
  66:Drivers/STM32G4xx_HAL_Driver/Src/stm32g4xx_hal_rcc_ex.c **** 
  67:Drivers/STM32G4xx_HAL_Driver/Src/stm32g4xx_hal_rcc_ex.c **** /* Exported functions --------------------------------------------------------*/
  68:Drivers/STM32G4xx_HAL_Driver/Src/stm32g4xx_hal_rcc_ex.c **** 
  69:Drivers/STM32G4xx_HAL_Driver/Src/stm32g4xx_hal_rcc_ex.c **** /** @defgroup RCCEx_Exported_Functions RCCEx Exported Functions
  70:Drivers/STM32G4xx_HAL_Driver/Src/stm32g4xx_hal_rcc_ex.c ****   * @{
  71:Drivers/STM32G4xx_HAL_Driver/Src/stm32g4xx_hal_rcc_ex.c ****   */
  72:Drivers/STM32G4xx_HAL_Driver/Src/stm32g4xx_hal_rcc_ex.c **** 
  73:Drivers/STM32G4xx_HAL_Driver/Src/stm32g4xx_hal_rcc_ex.c **** /** @defgroup RCCEx_Exported_Functions_Group1 Extended Peripheral Control functions
  74:Drivers/STM32G4xx_HAL_Driver/Src/stm32g4xx_hal_rcc_ex.c ****  *  @brief  Extended Peripheral Control functions
  75:Drivers/STM32G4xx_HAL_Driver/Src/stm32g4xx_hal_rcc_ex.c ****  *
  76:Drivers/STM32G4xx_HAL_Driver/Src/stm32g4xx_hal_rcc_ex.c **** @verbatim
  77:Drivers/STM32G4xx_HAL_Driver/Src/stm32g4xx_hal_rcc_ex.c ****  ===============================================================================
  78:Drivers/STM32G4xx_HAL_Driver/Src/stm32g4xx_hal_rcc_ex.c ****                 ##### Extended Peripheral Control functions  #####
  79:Drivers/STM32G4xx_HAL_Driver/Src/stm32g4xx_hal_rcc_ex.c ****  ===============================================================================
  80:Drivers/STM32G4xx_HAL_Driver/Src/stm32g4xx_hal_rcc_ex.c ****     [..]
  81:Drivers/STM32G4xx_HAL_Driver/Src/stm32g4xx_hal_rcc_ex.c ****     This subsection provides a set of functions allowing to control the RCC Clocks
  82:Drivers/STM32G4xx_HAL_Driver/Src/stm32g4xx_hal_rcc_ex.c ****     frequencies.
  83:Drivers/STM32G4xx_HAL_Driver/Src/stm32g4xx_hal_rcc_ex.c ****     [..]
  84:Drivers/STM32G4xx_HAL_Driver/Src/stm32g4xx_hal_rcc_ex.c ****     (@) Important note: Care must be taken when HAL_RCCEx_PeriphCLKConfig() is used to
  85:Drivers/STM32G4xx_HAL_Driver/Src/stm32g4xx_hal_rcc_ex.c ****         select the RTC clock source; in this case the Backup domain will be reset in
  86:Drivers/STM32G4xx_HAL_Driver/Src/stm32g4xx_hal_rcc_ex.c ****         order to modify the RTC Clock source, as consequence RTC registers (including
ARM GAS  C:\Users\aniru.000\AppData\Local\Temp\ccGZAzIF.s 			page 3


  87:Drivers/STM32G4xx_HAL_Driver/Src/stm32g4xx_hal_rcc_ex.c ****         the backup registers) are set to their reset values.
  88:Drivers/STM32G4xx_HAL_Driver/Src/stm32g4xx_hal_rcc_ex.c **** 
  89:Drivers/STM32G4xx_HAL_Driver/Src/stm32g4xx_hal_rcc_ex.c **** @endverbatim
  90:Drivers/STM32G4xx_HAL_Driver/Src/stm32g4xx_hal_rcc_ex.c ****   * @{
  91:Drivers/STM32G4xx_HAL_Driver/Src/stm32g4xx_hal_rcc_ex.c ****   */
  92:Drivers/STM32G4xx_HAL_Driver/Src/stm32g4xx_hal_rcc_ex.c **** /**
  93:Drivers/STM32G4xx_HAL_Driver/Src/stm32g4xx_hal_rcc_ex.c ****   * @brief  Initialize the RCC extended peripherals clocks according to the specified
  94:Drivers/STM32G4xx_HAL_Driver/Src/stm32g4xx_hal_rcc_ex.c ****   *         parameters in the RCC_PeriphCLKInitTypeDef.
  95:Drivers/STM32G4xx_HAL_Driver/Src/stm32g4xx_hal_rcc_ex.c ****   * @param  PeriphClkInit  pointer to an RCC_PeriphCLKInitTypeDef structure that
  96:Drivers/STM32G4xx_HAL_Driver/Src/stm32g4xx_hal_rcc_ex.c ****   *         contains a field PeriphClockSelection which can be a combination of the following value
  97:Drivers/STM32G4xx_HAL_Driver/Src/stm32g4xx_hal_rcc_ex.c ****   *            @arg @ref RCC_PERIPHCLK_RTC  RTC peripheral clock
  98:Drivers/STM32G4xx_HAL_Driver/Src/stm32g4xx_hal_rcc_ex.c ****   *            @arg @ref RCC_PERIPHCLK_USART1  USART1 peripheral clock
  99:Drivers/STM32G4xx_HAL_Driver/Src/stm32g4xx_hal_rcc_ex.c ****   *            @arg @ref RCC_PERIPHCLK_USART2  USART2 peripheral clock
 100:Drivers/STM32G4xx_HAL_Driver/Src/stm32g4xx_hal_rcc_ex.c ****   *            @arg @ref RCC_PERIPHCLK_USART3  USART3 peripheral clock
 101:Drivers/STM32G4xx_HAL_Driver/Src/stm32g4xx_hal_rcc_ex.c ****   *            @arg @ref RCC_PERIPHCLK_UART4  UART4 peripheral clock (only for devices with UART4)
 102:Drivers/STM32G4xx_HAL_Driver/Src/stm32g4xx_hal_rcc_ex.c ****   *            @arg @ref RCC_PERIPHCLK_UART5  UART5 peripheral clock (only for devices with UART5)
 103:Drivers/STM32G4xx_HAL_Driver/Src/stm32g4xx_hal_rcc_ex.c ****   *            @arg @ref RCC_PERIPHCLK_LPUART1  LPUART1 peripheral clock
 104:Drivers/STM32G4xx_HAL_Driver/Src/stm32g4xx_hal_rcc_ex.c ****   *            @arg @ref RCC_PERIPHCLK_I2C1  I2C1 peripheral clock
 105:Drivers/STM32G4xx_HAL_Driver/Src/stm32g4xx_hal_rcc_ex.c ****   *            @arg @ref RCC_PERIPHCLK_I2C2  I2C2 peripheral clock
 106:Drivers/STM32G4xx_HAL_Driver/Src/stm32g4xx_hal_rcc_ex.c ****   *            @arg @ref RCC_PERIPHCLK_I2C3  I2C3 peripheral clock
 107:Drivers/STM32G4xx_HAL_Driver/Src/stm32g4xx_hal_rcc_ex.c ****   *            @arg @ref RCC_PERIPHCLK_I2C4  I2C4 peripheral clock (only for devices with I2C4)
 108:Drivers/STM32G4xx_HAL_Driver/Src/stm32g4xx_hal_rcc_ex.c ****   *            @arg @ref RCC_PERIPHCLK_LPTIM1  LPTIM1 peripheral clock
 109:Drivers/STM32G4xx_HAL_Driver/Src/stm32g4xx_hal_rcc_ex.c ****   *            @arg @ref RCC_PERIPHCLK_SAI1  SAI1 peripheral clock
 110:Drivers/STM32G4xx_HAL_Driver/Src/stm32g4xx_hal_rcc_ex.c ****   *            @arg @ref RCC_PERIPHCLK_I2S  I2S peripheral clock
 111:Drivers/STM32G4xx_HAL_Driver/Src/stm32g4xx_hal_rcc_ex.c ****   *            @arg @ref RCC_PERIPHCLK_FDCAN  FDCAN peripheral clock (only for devices with FDCAN)
 112:Drivers/STM32G4xx_HAL_Driver/Src/stm32g4xx_hal_rcc_ex.c ****   *            @arg @ref RCC_PERIPHCLK_RNG  RNG peripheral clock
 113:Drivers/STM32G4xx_HAL_Driver/Src/stm32g4xx_hal_rcc_ex.c ****   *            @arg @ref RCC_PERIPHCLK_USB  USB peripheral clock (only for devices with USB)
 114:Drivers/STM32G4xx_HAL_Driver/Src/stm32g4xx_hal_rcc_ex.c ****   *            @arg @ref RCC_PERIPHCLK_ADC12  ADC1 and ADC2 peripheral clock
 115:Drivers/STM32G4xx_HAL_Driver/Src/stm32g4xx_hal_rcc_ex.c ****   *            @arg @ref RCC_PERIPHCLK_ADC345  ADC3, ADC4 and ADC5 peripheral clock (only for devic
 116:Drivers/STM32G4xx_HAL_Driver/Src/stm32g4xx_hal_rcc_ex.c ****   *            @arg @ref RCC_PERIPHCLK_QSPI  QuadSPI peripheral clock (only for devices with QuadSP
 117:Drivers/STM32G4xx_HAL_Driver/Src/stm32g4xx_hal_rcc_ex.c ****   *
 118:Drivers/STM32G4xx_HAL_Driver/Src/stm32g4xx_hal_rcc_ex.c ****   * @note   Care must be taken when HAL_RCCEx_PeriphCLKConfig() is used to select
 119:Drivers/STM32G4xx_HAL_Driver/Src/stm32g4xx_hal_rcc_ex.c ****   *         the RTC clock source: in this case the access to Backup domain is enabled.
 120:Drivers/STM32G4xx_HAL_Driver/Src/stm32g4xx_hal_rcc_ex.c ****   *
 121:Drivers/STM32G4xx_HAL_Driver/Src/stm32g4xx_hal_rcc_ex.c ****   * @retval HAL status
 122:Drivers/STM32G4xx_HAL_Driver/Src/stm32g4xx_hal_rcc_ex.c ****   */
 123:Drivers/STM32G4xx_HAL_Driver/Src/stm32g4xx_hal_rcc_ex.c **** HAL_StatusTypeDef HAL_RCCEx_PeriphCLKConfig(RCC_PeriphCLKInitTypeDef const *PeriphClkInit)
 124:Drivers/STM32G4xx_HAL_Driver/Src/stm32g4xx_hal_rcc_ex.c **** {
  30              		.loc 1 124 1 view -0
  31              		.cfi_startproc
  32              		@ args = 0, pretend = 0, frame = 8
  33              		@ frame_needed = 0, uses_anonymous_args = 0
  34              		.loc 1 124 1 is_stmt 0 view .LVU1
  35 0000 F0B5     		push	{r4, r5, r6, r7, lr}
  36              		.cfi_def_cfa_offset 20
  37              		.cfi_offset 4, -20
  38              		.cfi_offset 5, -16
  39              		.cfi_offset 6, -12
  40              		.cfi_offset 7, -8
  41              		.cfi_offset 14, -4
  42 0002 83B0     		sub	sp, sp, #12
  43              		.cfi_def_cfa_offset 32
  44 0004 0446     		mov	r4, r0
 125:Drivers/STM32G4xx_HAL_Driver/Src/stm32g4xx_hal_rcc_ex.c ****   uint32_t tmpregister;
  45              		.loc 1 125 3 is_stmt 1 view .LVU2
 126:Drivers/STM32G4xx_HAL_Driver/Src/stm32g4xx_hal_rcc_ex.c ****   uint32_t tickstart;
  46              		.loc 1 126 3 view .LVU3
ARM GAS  C:\Users\aniru.000\AppData\Local\Temp\ccGZAzIF.s 			page 4


 127:Drivers/STM32G4xx_HAL_Driver/Src/stm32g4xx_hal_rcc_ex.c ****   HAL_StatusTypeDef ret = HAL_OK;      /* Intermediate status */
  47              		.loc 1 127 3 view .LVU4
  48              	.LVL1:
 128:Drivers/STM32G4xx_HAL_Driver/Src/stm32g4xx_hal_rcc_ex.c ****   HAL_StatusTypeDef status = HAL_OK;   /* Final status */
  49              		.loc 1 128 3 view .LVU5
 129:Drivers/STM32G4xx_HAL_Driver/Src/stm32g4xx_hal_rcc_ex.c **** 
 130:Drivers/STM32G4xx_HAL_Driver/Src/stm32g4xx_hal_rcc_ex.c ****   /* Check the parameters */
 131:Drivers/STM32G4xx_HAL_Driver/Src/stm32g4xx_hal_rcc_ex.c ****   assert_param(IS_RCC_PERIPHCLOCK(PeriphClkInit->PeriphClockSelection));
  50              		.loc 1 131 3 view .LVU6
 132:Drivers/STM32G4xx_HAL_Driver/Src/stm32g4xx_hal_rcc_ex.c **** 
 133:Drivers/STM32G4xx_HAL_Driver/Src/stm32g4xx_hal_rcc_ex.c ****   /*-------------------------- RTC clock source configuration ----------------------*/
 134:Drivers/STM32G4xx_HAL_Driver/Src/stm32g4xx_hal_rcc_ex.c ****   if((PeriphClkInit->PeriphClockSelection & RCC_PERIPHCLK_RTC) == RCC_PERIPHCLK_RTC)
  51              		.loc 1 134 3 view .LVU7
  52              		.loc 1 134 20 is_stmt 0 view .LVU8
  53 0006 0368     		ldr	r3, [r0]
  54              		.loc 1 134 5 view .LVU9
  55 0008 13F4002F 		tst	r3, #524288
  56 000c 70D0     		beq	.L30
  57              	.LBB2:
 135:Drivers/STM32G4xx_HAL_Driver/Src/stm32g4xx_hal_rcc_ex.c ****   {
 136:Drivers/STM32G4xx_HAL_Driver/Src/stm32g4xx_hal_rcc_ex.c ****     FlagStatus       pwrclkchanged = RESET;
  58              		.loc 1 136 5 is_stmt 1 view .LVU10
  59              	.LVL2:
 137:Drivers/STM32G4xx_HAL_Driver/Src/stm32g4xx_hal_rcc_ex.c ****     
 138:Drivers/STM32G4xx_HAL_Driver/Src/stm32g4xx_hal_rcc_ex.c ****     /* Check for RTC Parameters used to output RTCCLK */
 139:Drivers/STM32G4xx_HAL_Driver/Src/stm32g4xx_hal_rcc_ex.c ****     assert_param(IS_RCC_RTCCLKSOURCE(PeriphClkInit->RTCClockSelection));
  60              		.loc 1 139 5 view .LVU11
 140:Drivers/STM32G4xx_HAL_Driver/Src/stm32g4xx_hal_rcc_ex.c **** 
 141:Drivers/STM32G4xx_HAL_Driver/Src/stm32g4xx_hal_rcc_ex.c ****     /* Enable Power Clock */
 142:Drivers/STM32G4xx_HAL_Driver/Src/stm32g4xx_hal_rcc_ex.c ****     if(__HAL_RCC_PWR_IS_CLK_DISABLED())
  61              		.loc 1 142 5 view .LVU12
  62              		.loc 1 142 8 is_stmt 0 view .LVU13
  63 000e 364B     		ldr	r3, .L45
  64 0010 9B6D     		ldr	r3, [r3, #88]
  65              		.loc 1 142 7 view .LVU14
  66 0012 13F0805F 		tst	r3, #268435456
  67 0016 1FD1     		bne	.L31
 143:Drivers/STM32G4xx_HAL_Driver/Src/stm32g4xx_hal_rcc_ex.c ****     {
 144:Drivers/STM32G4xx_HAL_Driver/Src/stm32g4xx_hal_rcc_ex.c ****       __HAL_RCC_PWR_CLK_ENABLE();
  68              		.loc 1 144 7 is_stmt 1 view .LVU15
  69              	.LBB3:
  70              		.loc 1 144 7 view .LVU16
  71              		.loc 1 144 7 view .LVU17
  72 0018 334B     		ldr	r3, .L45
  73 001a 9A6D     		ldr	r2, [r3, #88]
  74 001c 42F08052 		orr	r2, r2, #268435456
  75 0020 9A65     		str	r2, [r3, #88]
  76              		.loc 1 144 7 view .LVU18
  77 0022 9B6D     		ldr	r3, [r3, #88]
  78 0024 03F08053 		and	r3, r3, #268435456
  79 0028 0193     		str	r3, [sp, #4]
  80              		.loc 1 144 7 view .LVU19
  81 002a 019B     		ldr	r3, [sp, #4]
  82              	.LBE3:
  83              		.loc 1 144 7 view .LVU20
 145:Drivers/STM32G4xx_HAL_Driver/Src/stm32g4xx_hal_rcc_ex.c ****       pwrclkchanged = SET;
  84              		.loc 1 145 7 view .LVU21
ARM GAS  C:\Users\aniru.000\AppData\Local\Temp\ccGZAzIF.s 			page 5


  85              	.LVL3:
  86              		.loc 1 145 21 is_stmt 0 view .LVU22
  87 002c 0123     		movs	r3, #1
  88 002e 1E46     		mov	r6, r3
  89              	.LVL4:
  90              	.L3:
 146:Drivers/STM32G4xx_HAL_Driver/Src/stm32g4xx_hal_rcc_ex.c ****     }
 147:Drivers/STM32G4xx_HAL_Driver/Src/stm32g4xx_hal_rcc_ex.c ****       
 148:Drivers/STM32G4xx_HAL_Driver/Src/stm32g4xx_hal_rcc_ex.c ****     /* Enable write access to Backup domain */
 149:Drivers/STM32G4xx_HAL_Driver/Src/stm32g4xx_hal_rcc_ex.c ****     SET_BIT(PWR->CR1, PWR_CR1_DBP);
  91              		.loc 1 149 5 is_stmt 1 view .LVU23
  92 0030 2E4A     		ldr	r2, .L45+4
  93 0032 1368     		ldr	r3, [r2]
  94 0034 43F48073 		orr	r3, r3, #256
  95 0038 1360     		str	r3, [r2]
 150:Drivers/STM32G4xx_HAL_Driver/Src/stm32g4xx_hal_rcc_ex.c **** 
 151:Drivers/STM32G4xx_HAL_Driver/Src/stm32g4xx_hal_rcc_ex.c ****     /* Wait for Backup domain Write protection disable */
 152:Drivers/STM32G4xx_HAL_Driver/Src/stm32g4xx_hal_rcc_ex.c ****     tickstart = HAL_GetTick();
  96              		.loc 1 152 5 view .LVU24
  97              		.loc 1 152 17 is_stmt 0 view .LVU25
  98 003a FFF7FEFF 		bl	HAL_GetTick
  99              	.LVL5:
 100              		.loc 1 152 17 view .LVU26
 101 003e 0546     		mov	r5, r0
 102              	.LVL6:
 153:Drivers/STM32G4xx_HAL_Driver/Src/stm32g4xx_hal_rcc_ex.c **** 
 154:Drivers/STM32G4xx_HAL_Driver/Src/stm32g4xx_hal_rcc_ex.c ****     while((PWR->CR1 & PWR_CR1_DBP) == 0U)
 103              		.loc 1 154 5 is_stmt 1 view .LVU27
 104              	.L4:
 105              		.loc 1 154 36 view .LVU28
 106              		.loc 1 154 15 is_stmt 0 view .LVU29
 107 0040 2A4B     		ldr	r3, .L45+4
 108 0042 1B68     		ldr	r3, [r3]
 109              		.loc 1 154 36 view .LVU30
 110 0044 13F4807F 		tst	r3, #256
 111 0048 09D1     		bne	.L35
 155:Drivers/STM32G4xx_HAL_Driver/Src/stm32g4xx_hal_rcc_ex.c ****     {
 156:Drivers/STM32G4xx_HAL_Driver/Src/stm32g4xx_hal_rcc_ex.c ****       if((HAL_GetTick() - tickstart) > RCC_DBP_TIMEOUT_VALUE)
 112              		.loc 1 156 7 is_stmt 1 view .LVU31
 113              		.loc 1 156 11 is_stmt 0 view .LVU32
 114 004a FFF7FEFF 		bl	HAL_GetTick
 115              	.LVL7:
 116              		.loc 1 156 25 discriminator 1 view .LVU33
 117 004e 401B     		subs	r0, r0, r5
 118              		.loc 1 156 9 discriminator 1 view .LVU34
 119 0050 0228     		cmp	r0, #2
 120 0052 F5D9     		bls	.L4
 157:Drivers/STM32G4xx_HAL_Driver/Src/stm32g4xx_hal_rcc_ex.c ****       {
 158:Drivers/STM32G4xx_HAL_Driver/Src/stm32g4xx_hal_rcc_ex.c ****         ret = HAL_TIMEOUT;
 121              		.loc 1 158 13 view .LVU35
 122 0054 0325     		movs	r5, #3
 123              	.LVL8:
 124              		.loc 1 158 13 view .LVU36
 125 0056 03E0     		b	.L5
 126              	.LVL9:
 127              	.L31:
 136:Drivers/STM32G4xx_HAL_Driver/Src/stm32g4xx_hal_rcc_ex.c ****     
ARM GAS  C:\Users\aniru.000\AppData\Local\Temp\ccGZAzIF.s 			page 6


 128              		.loc 1 136 22 view .LVU37
 129 0058 0023     		movs	r3, #0
 130 005a 1E46     		mov	r6, r3
 131 005c E8E7     		b	.L3
 132              	.LVL10:
 133              	.L35:
 136:Drivers/STM32G4xx_HAL_Driver/Src/stm32g4xx_hal_rcc_ex.c ****     
 134              		.loc 1 136 22 view .LVU38
 135              	.LBE2:
 127:Drivers/STM32G4xx_HAL_Driver/Src/stm32g4xx_hal_rcc_ex.c ****   HAL_StatusTypeDef status = HAL_OK;   /* Final status */
 136              		.loc 1 127 21 view .LVU39
 137 005e 0025     		movs	r5, #0
 138              	.LVL11:
 139              	.L5:
 140              	.LBB4:
 159:Drivers/STM32G4xx_HAL_Driver/Src/stm32g4xx_hal_rcc_ex.c ****         break;
 160:Drivers/STM32G4xx_HAL_Driver/Src/stm32g4xx_hal_rcc_ex.c ****       }
 161:Drivers/STM32G4xx_HAL_Driver/Src/stm32g4xx_hal_rcc_ex.c ****     }
 162:Drivers/STM32G4xx_HAL_Driver/Src/stm32g4xx_hal_rcc_ex.c **** 
 163:Drivers/STM32G4xx_HAL_Driver/Src/stm32g4xx_hal_rcc_ex.c ****     if(ret == HAL_OK)
 141              		.loc 1 163 5 is_stmt 1 view .LVU40
 142              		.loc 1 163 7 is_stmt 0 view .LVU41
 143 0060 45BB     		cbnz	r5, .L7
 164:Drivers/STM32G4xx_HAL_Driver/Src/stm32g4xx_hal_rcc_ex.c ****     { 
 165:Drivers/STM32G4xx_HAL_Driver/Src/stm32g4xx_hal_rcc_ex.c ****       /* Reset the Backup domain only if the RTC Clock source selection is modified from default */
 166:Drivers/STM32G4xx_HAL_Driver/Src/stm32g4xx_hal_rcc_ex.c ****       tmpregister = READ_BIT(RCC->BDCR, RCC_BDCR_RTCSEL);
 144              		.loc 1 166 7 is_stmt 1 view .LVU42
 145              		.loc 1 166 21 is_stmt 0 view .LVU43
 146 0062 214B     		ldr	r3, .L45
 147 0064 D3F89030 		ldr	r3, [r3, #144]
 148              	.LVL12:
 167:Drivers/STM32G4xx_HAL_Driver/Src/stm32g4xx_hal_rcc_ex.c ****       
 168:Drivers/STM32G4xx_HAL_Driver/Src/stm32g4xx_hal_rcc_ex.c ****       if((tmpregister != RCC_RTCCLKSOURCE_NONE) && (tmpregister != PeriphClkInit->RTCClockSelection
 149              		.loc 1 168 7 is_stmt 1 view .LVU44
 150              		.loc 1 168 9 is_stmt 0 view .LVU45
 151 0068 13F44073 		ands	r3, r3, #768
 152              	.LVL13:
 153              		.loc 1 168 9 view .LVU46
 154 006c 18D0     		beq	.L8
 155              		.loc 1 168 81 discriminator 1 view .LVU47
 156 006e E26C     		ldr	r2, [r4, #76]
 157              		.loc 1 168 49 discriminator 1 view .LVU48
 158 0070 9A42     		cmp	r2, r3
 159 0072 12D0     		beq	.L9
 169:Drivers/STM32G4xx_HAL_Driver/Src/stm32g4xx_hal_rcc_ex.c ****       {
 170:Drivers/STM32G4xx_HAL_Driver/Src/stm32g4xx_hal_rcc_ex.c ****         /* Store the content of BDCR register before the reset of Backup Domain */
 171:Drivers/STM32G4xx_HAL_Driver/Src/stm32g4xx_hal_rcc_ex.c ****         tmpregister = READ_BIT(RCC->BDCR, ~(RCC_BDCR_RTCSEL));
 160              		.loc 1 171 9 is_stmt 1 view .LVU49
 161              		.loc 1 171 23 is_stmt 0 view .LVU50
 162 0074 1C4A     		ldr	r2, .L45
 163 0076 D2F89030 		ldr	r3, [r2, #144]
 164              	.LVL14:
 165              		.loc 1 171 21 view .LVU51
 166 007a 23F44073 		bic	r3, r3, #768
 167              	.LVL15:
 172:Drivers/STM32G4xx_HAL_Driver/Src/stm32g4xx_hal_rcc_ex.c ****         /* RTC Clock selection can be changed only if the Backup Domain is reset */
 173:Drivers/STM32G4xx_HAL_Driver/Src/stm32g4xx_hal_rcc_ex.c ****         __HAL_RCC_BACKUPRESET_FORCE();
ARM GAS  C:\Users\aniru.000\AppData\Local\Temp\ccGZAzIF.s 			page 7


 168              		.loc 1 173 9 is_stmt 1 view .LVU52
 169 007e D2F89010 		ldr	r1, [r2, #144]
 170 0082 41F48031 		orr	r1, r1, #65536
 171 0086 C2F89010 		str	r1, [r2, #144]
 174:Drivers/STM32G4xx_HAL_Driver/Src/stm32g4xx_hal_rcc_ex.c ****         __HAL_RCC_BACKUPRESET_RELEASE();
 172              		.loc 1 174 9 view .LVU53
 173 008a D2F89010 		ldr	r1, [r2, #144]
 174 008e 21F48031 		bic	r1, r1, #65536
 175 0092 C2F89010 		str	r1, [r2, #144]
 175:Drivers/STM32G4xx_HAL_Driver/Src/stm32g4xx_hal_rcc_ex.c ****         /* Restore the Content of BDCR register */
 176:Drivers/STM32G4xx_HAL_Driver/Src/stm32g4xx_hal_rcc_ex.c ****         RCC->BDCR = tmpregister;
 176              		.loc 1 176 9 view .LVU54
 177              		.loc 1 176 19 is_stmt 0 view .LVU55
 178 0096 C2F89030 		str	r3, [r2, #144]
 179              	.L9:
 177:Drivers/STM32G4xx_HAL_Driver/Src/stm32g4xx_hal_rcc_ex.c ****       }
 178:Drivers/STM32G4xx_HAL_Driver/Src/stm32g4xx_hal_rcc_ex.c **** 
 179:Drivers/STM32G4xx_HAL_Driver/Src/stm32g4xx_hal_rcc_ex.c ****       /* Wait for LSE reactivation if LSE was enable prior to Backup Domain reset */
 180:Drivers/STM32G4xx_HAL_Driver/Src/stm32g4xx_hal_rcc_ex.c ****       if (HAL_IS_BIT_SET(tmpregister, RCC_BDCR_LSEON))
 180              		.loc 1 180 7 is_stmt 1 view .LVU56
 181              		.loc 1 180 10 is_stmt 0 view .LVU57
 182 009a 13F0010F 		tst	r3, #1
 183 009e 10D1     		bne	.L36
 184              	.LVL16:
 185              	.L8:
 181:Drivers/STM32G4xx_HAL_Driver/Src/stm32g4xx_hal_rcc_ex.c ****       {
 182:Drivers/STM32G4xx_HAL_Driver/Src/stm32g4xx_hal_rcc_ex.c ****         /* Get Start Tick*/
 183:Drivers/STM32G4xx_HAL_Driver/Src/stm32g4xx_hal_rcc_ex.c ****         tickstart = HAL_GetTick();
 184:Drivers/STM32G4xx_HAL_Driver/Src/stm32g4xx_hal_rcc_ex.c **** 
 185:Drivers/STM32G4xx_HAL_Driver/Src/stm32g4xx_hal_rcc_ex.c ****         /* Wait till LSE is ready */
 186:Drivers/STM32G4xx_HAL_Driver/Src/stm32g4xx_hal_rcc_ex.c ****         while(READ_BIT(RCC->BDCR, RCC_BDCR_LSERDY) == 0U)
 187:Drivers/STM32G4xx_HAL_Driver/Src/stm32g4xx_hal_rcc_ex.c ****         {
 188:Drivers/STM32G4xx_HAL_Driver/Src/stm32g4xx_hal_rcc_ex.c ****           if((HAL_GetTick() - tickstart) > RCC_LSE_TIMEOUT_VALUE)
 189:Drivers/STM32G4xx_HAL_Driver/Src/stm32g4xx_hal_rcc_ex.c ****           {
 190:Drivers/STM32G4xx_HAL_Driver/Src/stm32g4xx_hal_rcc_ex.c ****             ret = HAL_TIMEOUT;
 191:Drivers/STM32G4xx_HAL_Driver/Src/stm32g4xx_hal_rcc_ex.c ****             break;
 192:Drivers/STM32G4xx_HAL_Driver/Src/stm32g4xx_hal_rcc_ex.c ****           }
 193:Drivers/STM32G4xx_HAL_Driver/Src/stm32g4xx_hal_rcc_ex.c ****         }
 194:Drivers/STM32G4xx_HAL_Driver/Src/stm32g4xx_hal_rcc_ex.c ****       }
 195:Drivers/STM32G4xx_HAL_Driver/Src/stm32g4xx_hal_rcc_ex.c ****       
 196:Drivers/STM32G4xx_HAL_Driver/Src/stm32g4xx_hal_rcc_ex.c ****       if(ret == HAL_OK)
 186              		.loc 1 196 7 is_stmt 1 view .LVU58
 187              		.loc 1 196 9 is_stmt 0 view .LVU59
 188 00a0 45B9     		cbnz	r5, .L7
 197:Drivers/STM32G4xx_HAL_Driver/Src/stm32g4xx_hal_rcc_ex.c ****       {
 198:Drivers/STM32G4xx_HAL_Driver/Src/stm32g4xx_hal_rcc_ex.c ****         /* Apply new RTC clock source selection */
 199:Drivers/STM32G4xx_HAL_Driver/Src/stm32g4xx_hal_rcc_ex.c ****         __HAL_RCC_RTC_CONFIG(PeriphClkInit->RTCClockSelection);
 189              		.loc 1 199 9 is_stmt 1 view .LVU60
 190 00a2 114A     		ldr	r2, .L45
 191 00a4 D2F89030 		ldr	r3, [r2, #144]
 192 00a8 23F44073 		bic	r3, r3, #768
 193 00ac E16C     		ldr	r1, [r4, #76]
 194 00ae 0B43     		orrs	r3, r3, r1
 195 00b0 C2F89030 		str	r3, [r2, #144]
 196              	.L7:
 197              	.LVL17:
 200:Drivers/STM32G4xx_HAL_Driver/Src/stm32g4xx_hal_rcc_ex.c ****       }
ARM GAS  C:\Users\aniru.000\AppData\Local\Temp\ccGZAzIF.s 			page 8


 201:Drivers/STM32G4xx_HAL_Driver/Src/stm32g4xx_hal_rcc_ex.c ****       else
 202:Drivers/STM32G4xx_HAL_Driver/Src/stm32g4xx_hal_rcc_ex.c ****       {
 203:Drivers/STM32G4xx_HAL_Driver/Src/stm32g4xx_hal_rcc_ex.c ****         /* set overall return value */
 204:Drivers/STM32G4xx_HAL_Driver/Src/stm32g4xx_hal_rcc_ex.c ****         status = ret;
 205:Drivers/STM32G4xx_HAL_Driver/Src/stm32g4xx_hal_rcc_ex.c ****       }
 206:Drivers/STM32G4xx_HAL_Driver/Src/stm32g4xx_hal_rcc_ex.c ****     }
 207:Drivers/STM32G4xx_HAL_Driver/Src/stm32g4xx_hal_rcc_ex.c ****     else
 208:Drivers/STM32G4xx_HAL_Driver/Src/stm32g4xx_hal_rcc_ex.c ****     {
 209:Drivers/STM32G4xx_HAL_Driver/Src/stm32g4xx_hal_rcc_ex.c ****       /* set overall return value */
 210:Drivers/STM32G4xx_HAL_Driver/Src/stm32g4xx_hal_rcc_ex.c ****       status = ret;
 211:Drivers/STM32G4xx_HAL_Driver/Src/stm32g4xx_hal_rcc_ex.c ****     }
 212:Drivers/STM32G4xx_HAL_Driver/Src/stm32g4xx_hal_rcc_ex.c **** 
 213:Drivers/STM32G4xx_HAL_Driver/Src/stm32g4xx_hal_rcc_ex.c ****     /* Restore clock configuration if changed */
 214:Drivers/STM32G4xx_HAL_Driver/Src/stm32g4xx_hal_rcc_ex.c ****     if(pwrclkchanged == SET)
 198              		.loc 1 214 5 view .LVU61
 199              		.loc 1 214 7 is_stmt 0 view .LVU62
 200 00b4 EEB1     		cbz	r6, .L2
 215:Drivers/STM32G4xx_HAL_Driver/Src/stm32g4xx_hal_rcc_ex.c ****     {
 216:Drivers/STM32G4xx_HAL_Driver/Src/stm32g4xx_hal_rcc_ex.c ****       __HAL_RCC_PWR_CLK_DISABLE();
 201              		.loc 1 216 7 is_stmt 1 view .LVU63
 202 00b6 0C4A     		ldr	r2, .L45
 203 00b8 936D     		ldr	r3, [r2, #88]
 204 00ba 23F08053 		bic	r3, r3, #268435456
 205 00be 9365     		str	r3, [r2, #88]
 206 00c0 17E0     		b	.L2
 207              	.LVL18:
 208              	.L36:
 183:Drivers/STM32G4xx_HAL_Driver/Src/stm32g4xx_hal_rcc_ex.c **** 
 209              		.loc 1 183 9 view .LVU64
 183:Drivers/STM32G4xx_HAL_Driver/Src/stm32g4xx_hal_rcc_ex.c **** 
 210              		.loc 1 183 21 is_stmt 0 view .LVU65
 211 00c2 FFF7FEFF 		bl	HAL_GetTick
 212              	.LVL19:
 183:Drivers/STM32G4xx_HAL_Driver/Src/stm32g4xx_hal_rcc_ex.c **** 
 213              		.loc 1 183 21 view .LVU66
 214 00c6 0746     		mov	r7, r0
 215              	.LVL20:
 186:Drivers/STM32G4xx_HAL_Driver/Src/stm32g4xx_hal_rcc_ex.c ****         {
 216              		.loc 1 186 9 is_stmt 1 view .LVU67
 217              	.L10:
 186:Drivers/STM32G4xx_HAL_Driver/Src/stm32g4xx_hal_rcc_ex.c ****         {
 218              		.loc 1 186 52 view .LVU68
 186:Drivers/STM32G4xx_HAL_Driver/Src/stm32g4xx_hal_rcc_ex.c ****         {
 219              		.loc 1 186 15 is_stmt 0 view .LVU69
 220 00c8 074B     		ldr	r3, .L45
 221 00ca D3F89030 		ldr	r3, [r3, #144]
 186:Drivers/STM32G4xx_HAL_Driver/Src/stm32g4xx_hal_rcc_ex.c ****         {
 222              		.loc 1 186 52 view .LVU70
 223 00ce 13F0020F 		tst	r3, #2
 224 00d2 E5D1     		bne	.L8
 188:Drivers/STM32G4xx_HAL_Driver/Src/stm32g4xx_hal_rcc_ex.c ****           {
 225              		.loc 1 188 11 is_stmt 1 view .LVU71
 188:Drivers/STM32G4xx_HAL_Driver/Src/stm32g4xx_hal_rcc_ex.c ****           {
 226              		.loc 1 188 15 is_stmt 0 view .LVU72
 227 00d4 FFF7FEFF 		bl	HAL_GetTick
 228              	.LVL21:
 188:Drivers/STM32G4xx_HAL_Driver/Src/stm32g4xx_hal_rcc_ex.c ****           {
ARM GAS  C:\Users\aniru.000\AppData\Local\Temp\ccGZAzIF.s 			page 9


 229              		.loc 1 188 29 discriminator 1 view .LVU73
 230 00d8 C01B     		subs	r0, r0, r7
 188:Drivers/STM32G4xx_HAL_Driver/Src/stm32g4xx_hal_rcc_ex.c ****           {
 231              		.loc 1 188 13 discriminator 1 view .LVU74
 232 00da 41F28833 		movw	r3, #5000
 233 00de 9842     		cmp	r0, r3
 234 00e0 F2D9     		bls	.L10
 190:Drivers/STM32G4xx_HAL_Driver/Src/stm32g4xx_hal_rcc_ex.c ****             break;
 235              		.loc 1 190 17 view .LVU75
 236 00e2 0325     		movs	r5, #3
 237              	.LVL22:
 190:Drivers/STM32G4xx_HAL_Driver/Src/stm32g4xx_hal_rcc_ex.c ****             break;
 238              		.loc 1 190 17 view .LVU76
 239 00e4 DCE7     		b	.L8
 240              	.L46:
 241 00e6 00BF     		.align	2
 242              	.L45:
 243 00e8 00100240 		.word	1073876992
 244 00ec 00700040 		.word	1073770496
 245              	.LVL23:
 246              	.L30:
 190:Drivers/STM32G4xx_HAL_Driver/Src/stm32g4xx_hal_rcc_ex.c ****             break;
 247              		.loc 1 190 17 view .LVU77
 248              	.LBE4:
 128:Drivers/STM32G4xx_HAL_Driver/Src/stm32g4xx_hal_rcc_ex.c **** 
 249              		.loc 1 128 21 view .LVU78
 250 00f0 0025     		movs	r5, #0
 251              	.LVL24:
 252              	.L2:
 217:Drivers/STM32G4xx_HAL_Driver/Src/stm32g4xx_hal_rcc_ex.c ****     }
 218:Drivers/STM32G4xx_HAL_Driver/Src/stm32g4xx_hal_rcc_ex.c ****   }
 219:Drivers/STM32G4xx_HAL_Driver/Src/stm32g4xx_hal_rcc_ex.c **** 
 220:Drivers/STM32G4xx_HAL_Driver/Src/stm32g4xx_hal_rcc_ex.c ****   /*-------------------------- USART1 clock source configuration -------------------*/
 221:Drivers/STM32G4xx_HAL_Driver/Src/stm32g4xx_hal_rcc_ex.c ****   if(((PeriphClkInit->PeriphClockSelection) & RCC_PERIPHCLK_USART1) == RCC_PERIPHCLK_USART1)
 253              		.loc 1 221 3 is_stmt 1 view .LVU79
 254              		.loc 1 221 21 is_stmt 0 view .LVU80
 255 00f2 2368     		ldr	r3, [r4]
 256              		.loc 1 221 5 view .LVU81
 257 00f4 13F0010F 		tst	r3, #1
 258 00f8 08D0     		beq	.L12
 222:Drivers/STM32G4xx_HAL_Driver/Src/stm32g4xx_hal_rcc_ex.c ****   {
 223:Drivers/STM32G4xx_HAL_Driver/Src/stm32g4xx_hal_rcc_ex.c ****     /* Check the parameters */
 224:Drivers/STM32G4xx_HAL_Driver/Src/stm32g4xx_hal_rcc_ex.c ****     assert_param(IS_RCC_USART1CLKSOURCE(PeriphClkInit->Usart1ClockSelection));
 259              		.loc 1 224 5 is_stmt 1 view .LVU82
 225:Drivers/STM32G4xx_HAL_Driver/Src/stm32g4xx_hal_rcc_ex.c **** 
 226:Drivers/STM32G4xx_HAL_Driver/Src/stm32g4xx_hal_rcc_ex.c ****     /* Configure the USART1 clock source */
 227:Drivers/STM32G4xx_HAL_Driver/Src/stm32g4xx_hal_rcc_ex.c ****     __HAL_RCC_USART1_CONFIG(PeriphClkInit->Usart1ClockSelection);
 260              		.loc 1 227 5 view .LVU83
 261 00fa 984A     		ldr	r2, .L47
 262 00fc D2F88830 		ldr	r3, [r2, #136]
 263 0100 23F00303 		bic	r3, r3, #3
 264 0104 6168     		ldr	r1, [r4, #4]
 265 0106 0B43     		orrs	r3, r3, r1
 266 0108 C2F88830 		str	r3, [r2, #136]
 267              	.L12:
 228:Drivers/STM32G4xx_HAL_Driver/Src/stm32g4xx_hal_rcc_ex.c ****   }
 229:Drivers/STM32G4xx_HAL_Driver/Src/stm32g4xx_hal_rcc_ex.c **** 
ARM GAS  C:\Users\aniru.000\AppData\Local\Temp\ccGZAzIF.s 			page 10


 230:Drivers/STM32G4xx_HAL_Driver/Src/stm32g4xx_hal_rcc_ex.c ****   /*-------------------------- USART2 clock source configuration -------------------*/
 231:Drivers/STM32G4xx_HAL_Driver/Src/stm32g4xx_hal_rcc_ex.c ****   if(((PeriphClkInit->PeriphClockSelection) & RCC_PERIPHCLK_USART2) == RCC_PERIPHCLK_USART2)
 268              		.loc 1 231 3 view .LVU84
 269              		.loc 1 231 21 is_stmt 0 view .LVU85
 270 010c 2368     		ldr	r3, [r4]
 271              		.loc 1 231 5 view .LVU86
 272 010e 13F0020F 		tst	r3, #2
 273 0112 08D0     		beq	.L13
 232:Drivers/STM32G4xx_HAL_Driver/Src/stm32g4xx_hal_rcc_ex.c ****   {
 233:Drivers/STM32G4xx_HAL_Driver/Src/stm32g4xx_hal_rcc_ex.c ****     /* Check the parameters */
 234:Drivers/STM32G4xx_HAL_Driver/Src/stm32g4xx_hal_rcc_ex.c ****     assert_param(IS_RCC_USART2CLKSOURCE(PeriphClkInit->Usart2ClockSelection));
 274              		.loc 1 234 5 is_stmt 1 view .LVU87
 235:Drivers/STM32G4xx_HAL_Driver/Src/stm32g4xx_hal_rcc_ex.c **** 
 236:Drivers/STM32G4xx_HAL_Driver/Src/stm32g4xx_hal_rcc_ex.c ****     /* Configure the USART2 clock source */
 237:Drivers/STM32G4xx_HAL_Driver/Src/stm32g4xx_hal_rcc_ex.c ****     __HAL_RCC_USART2_CONFIG(PeriphClkInit->Usart2ClockSelection);
 275              		.loc 1 237 5 view .LVU88
 276 0114 914A     		ldr	r2, .L47
 277 0116 D2F88830 		ldr	r3, [r2, #136]
 278 011a 23F00C03 		bic	r3, r3, #12
 279 011e A168     		ldr	r1, [r4, #8]
 280 0120 0B43     		orrs	r3, r3, r1
 281 0122 C2F88830 		str	r3, [r2, #136]
 282              	.L13:
 238:Drivers/STM32G4xx_HAL_Driver/Src/stm32g4xx_hal_rcc_ex.c ****   }
 239:Drivers/STM32G4xx_HAL_Driver/Src/stm32g4xx_hal_rcc_ex.c **** 
 240:Drivers/STM32G4xx_HAL_Driver/Src/stm32g4xx_hal_rcc_ex.c **** #if defined(USART3)
 241:Drivers/STM32G4xx_HAL_Driver/Src/stm32g4xx_hal_rcc_ex.c **** 
 242:Drivers/STM32G4xx_HAL_Driver/Src/stm32g4xx_hal_rcc_ex.c ****   /*-------------------------- USART3 clock source configuration -------------------*/
 243:Drivers/STM32G4xx_HAL_Driver/Src/stm32g4xx_hal_rcc_ex.c ****   if(((PeriphClkInit->PeriphClockSelection) & RCC_PERIPHCLK_USART3) == RCC_PERIPHCLK_USART3)
 283              		.loc 1 243 3 view .LVU89
 284              		.loc 1 243 21 is_stmt 0 view .LVU90
 285 0126 2368     		ldr	r3, [r4]
 286              		.loc 1 243 5 view .LVU91
 287 0128 13F0040F 		tst	r3, #4
 288 012c 08D0     		beq	.L14
 244:Drivers/STM32G4xx_HAL_Driver/Src/stm32g4xx_hal_rcc_ex.c ****   {
 245:Drivers/STM32G4xx_HAL_Driver/Src/stm32g4xx_hal_rcc_ex.c ****     /* Check the parameters */
 246:Drivers/STM32G4xx_HAL_Driver/Src/stm32g4xx_hal_rcc_ex.c ****     assert_param(IS_RCC_USART3CLKSOURCE(PeriphClkInit->Usart3ClockSelection));
 289              		.loc 1 246 5 is_stmt 1 view .LVU92
 247:Drivers/STM32G4xx_HAL_Driver/Src/stm32g4xx_hal_rcc_ex.c **** 
 248:Drivers/STM32G4xx_HAL_Driver/Src/stm32g4xx_hal_rcc_ex.c ****     /* Configure the USART3 clock source */
 249:Drivers/STM32G4xx_HAL_Driver/Src/stm32g4xx_hal_rcc_ex.c ****     __HAL_RCC_USART3_CONFIG(PeriphClkInit->Usart3ClockSelection);
 290              		.loc 1 249 5 view .LVU93
 291 012e 8B4A     		ldr	r2, .L47
 292 0130 D2F88830 		ldr	r3, [r2, #136]
 293 0134 23F03003 		bic	r3, r3, #48
 294 0138 E168     		ldr	r1, [r4, #12]
 295 013a 0B43     		orrs	r3, r3, r1
 296 013c C2F88830 		str	r3, [r2, #136]
 297              	.L14:
 250:Drivers/STM32G4xx_HAL_Driver/Src/stm32g4xx_hal_rcc_ex.c ****   }
 251:Drivers/STM32G4xx_HAL_Driver/Src/stm32g4xx_hal_rcc_ex.c **** 
 252:Drivers/STM32G4xx_HAL_Driver/Src/stm32g4xx_hal_rcc_ex.c **** #endif /* USART3 */
 253:Drivers/STM32G4xx_HAL_Driver/Src/stm32g4xx_hal_rcc_ex.c **** 
 254:Drivers/STM32G4xx_HAL_Driver/Src/stm32g4xx_hal_rcc_ex.c **** #if defined(UART4)
 255:Drivers/STM32G4xx_HAL_Driver/Src/stm32g4xx_hal_rcc_ex.c ****   /*-------------------------- UART4 clock source configuration --------------------*/
 256:Drivers/STM32G4xx_HAL_Driver/Src/stm32g4xx_hal_rcc_ex.c ****   if(((PeriphClkInit->PeriphClockSelection) & RCC_PERIPHCLK_UART4) == RCC_PERIPHCLK_UART4)
ARM GAS  C:\Users\aniru.000\AppData\Local\Temp\ccGZAzIF.s 			page 11


 298              		.loc 1 256 3 view .LVU94
 299              		.loc 1 256 21 is_stmt 0 view .LVU95
 300 0140 2368     		ldr	r3, [r4]
 301              		.loc 1 256 5 view .LVU96
 302 0142 13F0080F 		tst	r3, #8
 303 0146 08D0     		beq	.L15
 257:Drivers/STM32G4xx_HAL_Driver/Src/stm32g4xx_hal_rcc_ex.c ****   {
 258:Drivers/STM32G4xx_HAL_Driver/Src/stm32g4xx_hal_rcc_ex.c ****     /* Check the parameters */
 259:Drivers/STM32G4xx_HAL_Driver/Src/stm32g4xx_hal_rcc_ex.c ****     assert_param(IS_RCC_UART4CLKSOURCE(PeriphClkInit->Uart4ClockSelection));
 304              		.loc 1 259 5 is_stmt 1 view .LVU97
 260:Drivers/STM32G4xx_HAL_Driver/Src/stm32g4xx_hal_rcc_ex.c **** 
 261:Drivers/STM32G4xx_HAL_Driver/Src/stm32g4xx_hal_rcc_ex.c ****     /* Configure the UART4 clock source */
 262:Drivers/STM32G4xx_HAL_Driver/Src/stm32g4xx_hal_rcc_ex.c ****     __HAL_RCC_UART4_CONFIG(PeriphClkInit->Uart4ClockSelection);
 305              		.loc 1 262 5 view .LVU98
 306 0148 844A     		ldr	r2, .L47
 307 014a D2F88830 		ldr	r3, [r2, #136]
 308 014e 23F0C003 		bic	r3, r3, #192
 309 0152 2169     		ldr	r1, [r4, #16]
 310 0154 0B43     		orrs	r3, r3, r1
 311 0156 C2F88830 		str	r3, [r2, #136]
 312              	.L15:
 263:Drivers/STM32G4xx_HAL_Driver/Src/stm32g4xx_hal_rcc_ex.c ****   }
 264:Drivers/STM32G4xx_HAL_Driver/Src/stm32g4xx_hal_rcc_ex.c **** #endif /* UART4 */
 265:Drivers/STM32G4xx_HAL_Driver/Src/stm32g4xx_hal_rcc_ex.c **** 
 266:Drivers/STM32G4xx_HAL_Driver/Src/stm32g4xx_hal_rcc_ex.c **** #if defined(UART5)
 267:Drivers/STM32G4xx_HAL_Driver/Src/stm32g4xx_hal_rcc_ex.c **** 
 268:Drivers/STM32G4xx_HAL_Driver/Src/stm32g4xx_hal_rcc_ex.c ****   /*-------------------------- UART5 clock source configuration --------------------*/
 269:Drivers/STM32G4xx_HAL_Driver/Src/stm32g4xx_hal_rcc_ex.c ****   if(((PeriphClkInit->PeriphClockSelection) & RCC_PERIPHCLK_UART5) == RCC_PERIPHCLK_UART5)
 313              		.loc 1 269 3 view .LVU99
 314              		.loc 1 269 21 is_stmt 0 view .LVU100
 315 015a 2368     		ldr	r3, [r4]
 316              		.loc 1 269 5 view .LVU101
 317 015c 13F0100F 		tst	r3, #16
 318 0160 08D0     		beq	.L16
 270:Drivers/STM32G4xx_HAL_Driver/Src/stm32g4xx_hal_rcc_ex.c ****   {
 271:Drivers/STM32G4xx_HAL_Driver/Src/stm32g4xx_hal_rcc_ex.c ****     /* Check the parameters */
 272:Drivers/STM32G4xx_HAL_Driver/Src/stm32g4xx_hal_rcc_ex.c ****     assert_param(IS_RCC_UART5CLKSOURCE(PeriphClkInit->Uart5ClockSelection));
 319              		.loc 1 272 5 is_stmt 1 view .LVU102
 273:Drivers/STM32G4xx_HAL_Driver/Src/stm32g4xx_hal_rcc_ex.c **** 
 274:Drivers/STM32G4xx_HAL_Driver/Src/stm32g4xx_hal_rcc_ex.c ****     /* Configure the UART5 clock source */
 275:Drivers/STM32G4xx_HAL_Driver/Src/stm32g4xx_hal_rcc_ex.c ****     __HAL_RCC_UART5_CONFIG(PeriphClkInit->Uart5ClockSelection);
 320              		.loc 1 275 5 view .LVU103
 321 0162 7E4A     		ldr	r2, .L47
 322 0164 D2F88830 		ldr	r3, [r2, #136]
 323 0168 23F44073 		bic	r3, r3, #768
 324 016c 6169     		ldr	r1, [r4, #20]
 325 016e 0B43     		orrs	r3, r3, r1
 326 0170 C2F88830 		str	r3, [r2, #136]
 327              	.L16:
 276:Drivers/STM32G4xx_HAL_Driver/Src/stm32g4xx_hal_rcc_ex.c ****   }
 277:Drivers/STM32G4xx_HAL_Driver/Src/stm32g4xx_hal_rcc_ex.c **** 
 278:Drivers/STM32G4xx_HAL_Driver/Src/stm32g4xx_hal_rcc_ex.c **** #endif /* UART5 */
 279:Drivers/STM32G4xx_HAL_Driver/Src/stm32g4xx_hal_rcc_ex.c **** 
 280:Drivers/STM32G4xx_HAL_Driver/Src/stm32g4xx_hal_rcc_ex.c ****   /*-------------------------- LPUART1 clock source configuration ------------------*/
 281:Drivers/STM32G4xx_HAL_Driver/Src/stm32g4xx_hal_rcc_ex.c ****   if(((PeriphClkInit->PeriphClockSelection) & RCC_PERIPHCLK_LPUART1) == RCC_PERIPHCLK_LPUART1)
 328              		.loc 1 281 3 view .LVU104
 329              		.loc 1 281 21 is_stmt 0 view .LVU105
ARM GAS  C:\Users\aniru.000\AppData\Local\Temp\ccGZAzIF.s 			page 12


 330 0174 2368     		ldr	r3, [r4]
 331              		.loc 1 281 5 view .LVU106
 332 0176 13F0200F 		tst	r3, #32
 333 017a 08D0     		beq	.L17
 282:Drivers/STM32G4xx_HAL_Driver/Src/stm32g4xx_hal_rcc_ex.c ****   {
 283:Drivers/STM32G4xx_HAL_Driver/Src/stm32g4xx_hal_rcc_ex.c ****     /* Check the parameters */
 284:Drivers/STM32G4xx_HAL_Driver/Src/stm32g4xx_hal_rcc_ex.c ****     assert_param(IS_RCC_LPUART1CLKSOURCE(PeriphClkInit->Lpuart1ClockSelection));
 334              		.loc 1 284 5 is_stmt 1 view .LVU107
 285:Drivers/STM32G4xx_HAL_Driver/Src/stm32g4xx_hal_rcc_ex.c **** 
 286:Drivers/STM32G4xx_HAL_Driver/Src/stm32g4xx_hal_rcc_ex.c ****     /* Configure the LPUAR1 clock source */
 287:Drivers/STM32G4xx_HAL_Driver/Src/stm32g4xx_hal_rcc_ex.c ****     __HAL_RCC_LPUART1_CONFIG(PeriphClkInit->Lpuart1ClockSelection);
 335              		.loc 1 287 5 view .LVU108
 336 017c 774A     		ldr	r2, .L47
 337 017e D2F88830 		ldr	r3, [r2, #136]
 338 0182 23F44063 		bic	r3, r3, #3072
 339 0186 A169     		ldr	r1, [r4, #24]
 340 0188 0B43     		orrs	r3, r3, r1
 341 018a C2F88830 		str	r3, [r2, #136]
 342              	.L17:
 288:Drivers/STM32G4xx_HAL_Driver/Src/stm32g4xx_hal_rcc_ex.c ****   }
 289:Drivers/STM32G4xx_HAL_Driver/Src/stm32g4xx_hal_rcc_ex.c **** 
 290:Drivers/STM32G4xx_HAL_Driver/Src/stm32g4xx_hal_rcc_ex.c ****   /*-------------------------- I2C1 clock source configuration ---------------------*/
 291:Drivers/STM32G4xx_HAL_Driver/Src/stm32g4xx_hal_rcc_ex.c ****   if(((PeriphClkInit->PeriphClockSelection) & RCC_PERIPHCLK_I2C1) == RCC_PERIPHCLK_I2C1)
 343              		.loc 1 291 3 view .LVU109
 344              		.loc 1 291 21 is_stmt 0 view .LVU110
 345 018e 2368     		ldr	r3, [r4]
 346              		.loc 1 291 5 view .LVU111
 347 0190 13F0400F 		tst	r3, #64
 348 0194 08D0     		beq	.L18
 292:Drivers/STM32G4xx_HAL_Driver/Src/stm32g4xx_hal_rcc_ex.c ****   {
 293:Drivers/STM32G4xx_HAL_Driver/Src/stm32g4xx_hal_rcc_ex.c ****     /* Check the parameters */
 294:Drivers/STM32G4xx_HAL_Driver/Src/stm32g4xx_hal_rcc_ex.c ****     assert_param(IS_RCC_I2C1CLKSOURCE(PeriphClkInit->I2c1ClockSelection));
 349              		.loc 1 294 5 is_stmt 1 view .LVU112
 295:Drivers/STM32G4xx_HAL_Driver/Src/stm32g4xx_hal_rcc_ex.c **** 
 296:Drivers/STM32G4xx_HAL_Driver/Src/stm32g4xx_hal_rcc_ex.c ****     /* Configure the I2C1 clock source */
 297:Drivers/STM32G4xx_HAL_Driver/Src/stm32g4xx_hal_rcc_ex.c ****     __HAL_RCC_I2C1_CONFIG(PeriphClkInit->I2c1ClockSelection);
 350              		.loc 1 297 5 view .LVU113
 351 0196 714A     		ldr	r2, .L47
 352 0198 D2F88830 		ldr	r3, [r2, #136]
 353 019c 23F44053 		bic	r3, r3, #12288
 354 01a0 E169     		ldr	r1, [r4, #28]
 355 01a2 0B43     		orrs	r3, r3, r1
 356 01a4 C2F88830 		str	r3, [r2, #136]
 357              	.L18:
 298:Drivers/STM32G4xx_HAL_Driver/Src/stm32g4xx_hal_rcc_ex.c ****   }
 299:Drivers/STM32G4xx_HAL_Driver/Src/stm32g4xx_hal_rcc_ex.c **** 
 300:Drivers/STM32G4xx_HAL_Driver/Src/stm32g4xx_hal_rcc_ex.c ****   /*-------------------------- I2C2 clock source configuration ---------------------*/
 301:Drivers/STM32G4xx_HAL_Driver/Src/stm32g4xx_hal_rcc_ex.c ****   if(((PeriphClkInit->PeriphClockSelection) & RCC_PERIPHCLK_I2C2) == RCC_PERIPHCLK_I2C2)
 358              		.loc 1 301 3 view .LVU114
 359              		.loc 1 301 21 is_stmt 0 view .LVU115
 360 01a8 2368     		ldr	r3, [r4]
 361              		.loc 1 301 5 view .LVU116
 362 01aa 13F0800F 		tst	r3, #128
 363 01ae 08D0     		beq	.L19
 302:Drivers/STM32G4xx_HAL_Driver/Src/stm32g4xx_hal_rcc_ex.c ****   {
 303:Drivers/STM32G4xx_HAL_Driver/Src/stm32g4xx_hal_rcc_ex.c ****     /* Check the parameters */
 304:Drivers/STM32G4xx_HAL_Driver/Src/stm32g4xx_hal_rcc_ex.c ****     assert_param(IS_RCC_I2C2CLKSOURCE(PeriphClkInit->I2c2ClockSelection));
ARM GAS  C:\Users\aniru.000\AppData\Local\Temp\ccGZAzIF.s 			page 13


 364              		.loc 1 304 5 is_stmt 1 view .LVU117
 305:Drivers/STM32G4xx_HAL_Driver/Src/stm32g4xx_hal_rcc_ex.c **** 
 306:Drivers/STM32G4xx_HAL_Driver/Src/stm32g4xx_hal_rcc_ex.c ****     /* Configure the I2C2 clock source */
 307:Drivers/STM32G4xx_HAL_Driver/Src/stm32g4xx_hal_rcc_ex.c ****     __HAL_RCC_I2C2_CONFIG(PeriphClkInit->I2c2ClockSelection);
 365              		.loc 1 307 5 view .LVU118
 366 01b0 6A4A     		ldr	r2, .L47
 367 01b2 D2F88830 		ldr	r3, [r2, #136]
 368 01b6 23F44043 		bic	r3, r3, #49152
 369 01ba 216A     		ldr	r1, [r4, #32]
 370 01bc 0B43     		orrs	r3, r3, r1
 371 01be C2F88830 		str	r3, [r2, #136]
 372              	.L19:
 308:Drivers/STM32G4xx_HAL_Driver/Src/stm32g4xx_hal_rcc_ex.c ****   }
 309:Drivers/STM32G4xx_HAL_Driver/Src/stm32g4xx_hal_rcc_ex.c **** #if defined(I2C3)
 310:Drivers/STM32G4xx_HAL_Driver/Src/stm32g4xx_hal_rcc_ex.c **** 
 311:Drivers/STM32G4xx_HAL_Driver/Src/stm32g4xx_hal_rcc_ex.c ****   /*-------------------------- I2C3 clock source configuration ---------------------*/
 312:Drivers/STM32G4xx_HAL_Driver/Src/stm32g4xx_hal_rcc_ex.c ****   if(((PeriphClkInit->PeriphClockSelection) & RCC_PERIPHCLK_I2C3) == RCC_PERIPHCLK_I2C3)
 373              		.loc 1 312 3 view .LVU119
 374              		.loc 1 312 21 is_stmt 0 view .LVU120
 375 01c2 2368     		ldr	r3, [r4]
 376              		.loc 1 312 5 view .LVU121
 377 01c4 13F4807F 		tst	r3, #256
 378 01c8 08D0     		beq	.L20
 313:Drivers/STM32G4xx_HAL_Driver/Src/stm32g4xx_hal_rcc_ex.c ****   {
 314:Drivers/STM32G4xx_HAL_Driver/Src/stm32g4xx_hal_rcc_ex.c ****     /* Check the parameters */
 315:Drivers/STM32G4xx_HAL_Driver/Src/stm32g4xx_hal_rcc_ex.c ****     assert_param(IS_RCC_I2C3CLKSOURCE(PeriphClkInit->I2c3ClockSelection));
 379              		.loc 1 315 5 is_stmt 1 view .LVU122
 316:Drivers/STM32G4xx_HAL_Driver/Src/stm32g4xx_hal_rcc_ex.c **** 
 317:Drivers/STM32G4xx_HAL_Driver/Src/stm32g4xx_hal_rcc_ex.c ****     /* Configure the I2C3 clock source */
 318:Drivers/STM32G4xx_HAL_Driver/Src/stm32g4xx_hal_rcc_ex.c ****     __HAL_RCC_I2C3_CONFIG(PeriphClkInit->I2c3ClockSelection);
 380              		.loc 1 318 5 view .LVU123
 381 01ca 644A     		ldr	r2, .L47
 382 01cc D2F88830 		ldr	r3, [r2, #136]
 383 01d0 23F44033 		bic	r3, r3, #196608
 384 01d4 616A     		ldr	r1, [r4, #36]
 385 01d6 0B43     		orrs	r3, r3, r1
 386 01d8 C2F88830 		str	r3, [r2, #136]
 387              	.L20:
 319:Drivers/STM32G4xx_HAL_Driver/Src/stm32g4xx_hal_rcc_ex.c ****   }
 320:Drivers/STM32G4xx_HAL_Driver/Src/stm32g4xx_hal_rcc_ex.c **** 
 321:Drivers/STM32G4xx_HAL_Driver/Src/stm32g4xx_hal_rcc_ex.c **** #endif /* I2C3 */
 322:Drivers/STM32G4xx_HAL_Driver/Src/stm32g4xx_hal_rcc_ex.c **** #if defined(I2C4)
 323:Drivers/STM32G4xx_HAL_Driver/Src/stm32g4xx_hal_rcc_ex.c **** 
 324:Drivers/STM32G4xx_HAL_Driver/Src/stm32g4xx_hal_rcc_ex.c ****   /*-------------------------- I2C4 clock source configuration ---------------------*/
 325:Drivers/STM32G4xx_HAL_Driver/Src/stm32g4xx_hal_rcc_ex.c ****   if(((PeriphClkInit->PeriphClockSelection) & RCC_PERIPHCLK_I2C4) == RCC_PERIPHCLK_I2C4)
 326:Drivers/STM32G4xx_HAL_Driver/Src/stm32g4xx_hal_rcc_ex.c ****   {
 327:Drivers/STM32G4xx_HAL_Driver/Src/stm32g4xx_hal_rcc_ex.c ****     /* Check the parameters */
 328:Drivers/STM32G4xx_HAL_Driver/Src/stm32g4xx_hal_rcc_ex.c ****     assert_param(IS_RCC_I2C4CLKSOURCE(PeriphClkInit->I2c4ClockSelection));
 329:Drivers/STM32G4xx_HAL_Driver/Src/stm32g4xx_hal_rcc_ex.c **** 
 330:Drivers/STM32G4xx_HAL_Driver/Src/stm32g4xx_hal_rcc_ex.c ****     /* Configure the I2C4 clock source */
 331:Drivers/STM32G4xx_HAL_Driver/Src/stm32g4xx_hal_rcc_ex.c ****     __HAL_RCC_I2C4_CONFIG(PeriphClkInit->I2c4ClockSelection);
 332:Drivers/STM32G4xx_HAL_Driver/Src/stm32g4xx_hal_rcc_ex.c ****   }
 333:Drivers/STM32G4xx_HAL_Driver/Src/stm32g4xx_hal_rcc_ex.c **** 
 334:Drivers/STM32G4xx_HAL_Driver/Src/stm32g4xx_hal_rcc_ex.c **** #endif /* I2C4 */
 335:Drivers/STM32G4xx_HAL_Driver/Src/stm32g4xx_hal_rcc_ex.c **** 
 336:Drivers/STM32G4xx_HAL_Driver/Src/stm32g4xx_hal_rcc_ex.c ****   /*-------------------------- LPTIM1 clock source configuration ---------------------*/
 337:Drivers/STM32G4xx_HAL_Driver/Src/stm32g4xx_hal_rcc_ex.c ****   if(((PeriphClkInit->PeriphClockSelection) & RCC_PERIPHCLK_LPTIM1) == RCC_PERIPHCLK_LPTIM1)
ARM GAS  C:\Users\aniru.000\AppData\Local\Temp\ccGZAzIF.s 			page 14


 388              		.loc 1 337 3 view .LVU124
 389              		.loc 1 337 21 is_stmt 0 view .LVU125
 390 01dc 2368     		ldr	r3, [r4]
 391              		.loc 1 337 5 view .LVU126
 392 01de 13F4007F 		tst	r3, #512
 393 01e2 08D0     		beq	.L21
 338:Drivers/STM32G4xx_HAL_Driver/Src/stm32g4xx_hal_rcc_ex.c ****   {
 339:Drivers/STM32G4xx_HAL_Driver/Src/stm32g4xx_hal_rcc_ex.c ****     /* Check the parameters */
 340:Drivers/STM32G4xx_HAL_Driver/Src/stm32g4xx_hal_rcc_ex.c ****     assert_param(IS_RCC_LPTIM1CLKSOURCE(PeriphClkInit->Lptim1ClockSelection));
 394              		.loc 1 340 5 is_stmt 1 view .LVU127
 341:Drivers/STM32G4xx_HAL_Driver/Src/stm32g4xx_hal_rcc_ex.c **** 
 342:Drivers/STM32G4xx_HAL_Driver/Src/stm32g4xx_hal_rcc_ex.c ****     /* Configure the LPTIM1 clock source */
 343:Drivers/STM32G4xx_HAL_Driver/Src/stm32g4xx_hal_rcc_ex.c ****     __HAL_RCC_LPTIM1_CONFIG(PeriphClkInit->Lptim1ClockSelection);
 395              		.loc 1 343 5 view .LVU128
 396 01e4 5D4A     		ldr	r2, .L47
 397 01e6 D2F88830 		ldr	r3, [r2, #136]
 398 01ea 23F44023 		bic	r3, r3, #786432
 399 01ee A16A     		ldr	r1, [r4, #40]
 400 01f0 0B43     		orrs	r3, r3, r1
 401 01f2 C2F88830 		str	r3, [r2, #136]
 402              	.L21:
 344:Drivers/STM32G4xx_HAL_Driver/Src/stm32g4xx_hal_rcc_ex.c ****   }
 345:Drivers/STM32G4xx_HAL_Driver/Src/stm32g4xx_hal_rcc_ex.c **** 
 346:Drivers/STM32G4xx_HAL_Driver/Src/stm32g4xx_hal_rcc_ex.c **** #if defined(SAI1) 
 347:Drivers/STM32G4xx_HAL_Driver/Src/stm32g4xx_hal_rcc_ex.c ****   /*-------------------------- SAI1 clock source configuration ---------------------*/
 348:Drivers/STM32G4xx_HAL_Driver/Src/stm32g4xx_hal_rcc_ex.c ****   if(((PeriphClkInit->PeriphClockSelection) & RCC_PERIPHCLK_SAI1) == RCC_PERIPHCLK_SAI1)
 403              		.loc 1 348 3 view .LVU129
 404              		.loc 1 348 21 is_stmt 0 view .LVU130
 405 01f6 2368     		ldr	r3, [r4]
 406              		.loc 1 348 5 view .LVU131
 407 01f8 13F4806F 		tst	r3, #1024
 408 01fc 0CD0     		beq	.L22
 349:Drivers/STM32G4xx_HAL_Driver/Src/stm32g4xx_hal_rcc_ex.c ****   {
 350:Drivers/STM32G4xx_HAL_Driver/Src/stm32g4xx_hal_rcc_ex.c ****     /* Check the parameters */
 351:Drivers/STM32G4xx_HAL_Driver/Src/stm32g4xx_hal_rcc_ex.c ****     assert_param(IS_RCC_SAI1CLKSOURCE(PeriphClkInit->Sai1ClockSelection));
 409              		.loc 1 351 5 is_stmt 1 view .LVU132
 352:Drivers/STM32G4xx_HAL_Driver/Src/stm32g4xx_hal_rcc_ex.c **** 
 353:Drivers/STM32G4xx_HAL_Driver/Src/stm32g4xx_hal_rcc_ex.c ****     /* Configure the SAI1 interface clock source */
 354:Drivers/STM32G4xx_HAL_Driver/Src/stm32g4xx_hal_rcc_ex.c ****     __HAL_RCC_SAI1_CONFIG(PeriphClkInit->Sai1ClockSelection);
 410              		.loc 1 354 5 view .LVU133
 411 01fe 574A     		ldr	r2, .L47
 412 0200 D2F88830 		ldr	r3, [r2, #136]
 413 0204 23F44013 		bic	r3, r3, #3145728
 414 0208 E16A     		ldr	r1, [r4, #44]
 415 020a 0B43     		orrs	r3, r3, r1
 416 020c C2F88830 		str	r3, [r2, #136]
 355:Drivers/STM32G4xx_HAL_Driver/Src/stm32g4xx_hal_rcc_ex.c ****     
 356:Drivers/STM32G4xx_HAL_Driver/Src/stm32g4xx_hal_rcc_ex.c ****     if(PeriphClkInit->Sai1ClockSelection == RCC_SAI1CLKSOURCE_PLL)
 417              		.loc 1 356 5 view .LVU134
 418              		.loc 1 356 21 is_stmt 0 view .LVU135
 419 0210 E36A     		ldr	r3, [r4, #44]
 420              		.loc 1 356 7 view .LVU136
 421 0212 B3F5801F 		cmp	r3, #1048576
 422 0216 79D0     		beq	.L37
 423              	.L22:
 357:Drivers/STM32G4xx_HAL_Driver/Src/stm32g4xx_hal_rcc_ex.c ****     {
 358:Drivers/STM32G4xx_HAL_Driver/Src/stm32g4xx_hal_rcc_ex.c ****       /* Enable PLL48M1CLK output */
ARM GAS  C:\Users\aniru.000\AppData\Local\Temp\ccGZAzIF.s 			page 15


 359:Drivers/STM32G4xx_HAL_Driver/Src/stm32g4xx_hal_rcc_ex.c ****       __HAL_RCC_PLLCLKOUT_ENABLE(RCC_PLL_48M1CLK);
 360:Drivers/STM32G4xx_HAL_Driver/Src/stm32g4xx_hal_rcc_ex.c ****     }
 361:Drivers/STM32G4xx_HAL_Driver/Src/stm32g4xx_hal_rcc_ex.c ****   }
 362:Drivers/STM32G4xx_HAL_Driver/Src/stm32g4xx_hal_rcc_ex.c **** 
 363:Drivers/STM32G4xx_HAL_Driver/Src/stm32g4xx_hal_rcc_ex.c **** #endif /* SAI1 */
 364:Drivers/STM32G4xx_HAL_Driver/Src/stm32g4xx_hal_rcc_ex.c **** 
 365:Drivers/STM32G4xx_HAL_Driver/Src/stm32g4xx_hal_rcc_ex.c **** #if defined(SPI_I2S_SUPPORT)
 366:Drivers/STM32G4xx_HAL_Driver/Src/stm32g4xx_hal_rcc_ex.c ****   /*-------------------------- I2S clock source configuration ---------------------*/
 367:Drivers/STM32G4xx_HAL_Driver/Src/stm32g4xx_hal_rcc_ex.c ****   if(((PeriphClkInit->PeriphClockSelection) & RCC_PERIPHCLK_I2S) == RCC_PERIPHCLK_I2S)
 424              		.loc 1 367 3 is_stmt 1 view .LVU137
 425              		.loc 1 367 21 is_stmt 0 view .LVU138
 426 0218 2368     		ldr	r3, [r4]
 427              		.loc 1 367 5 view .LVU139
 428 021a 13F4006F 		tst	r3, #2048
 429 021e 0CD0     		beq	.L23
 368:Drivers/STM32G4xx_HAL_Driver/Src/stm32g4xx_hal_rcc_ex.c ****   {
 369:Drivers/STM32G4xx_HAL_Driver/Src/stm32g4xx_hal_rcc_ex.c ****     /* Check the parameters */
 370:Drivers/STM32G4xx_HAL_Driver/Src/stm32g4xx_hal_rcc_ex.c ****     assert_param(IS_RCC_I2SCLKSOURCE(PeriphClkInit->I2sClockSelection));
 430              		.loc 1 370 5 is_stmt 1 view .LVU140
 371:Drivers/STM32G4xx_HAL_Driver/Src/stm32g4xx_hal_rcc_ex.c **** 
 372:Drivers/STM32G4xx_HAL_Driver/Src/stm32g4xx_hal_rcc_ex.c ****     /* Configure the I2S interface clock source */
 373:Drivers/STM32G4xx_HAL_Driver/Src/stm32g4xx_hal_rcc_ex.c ****     __HAL_RCC_I2S_CONFIG(PeriphClkInit->I2sClockSelection);
 431              		.loc 1 373 5 view .LVU141
 432 0220 4E4A     		ldr	r2, .L47
 433 0222 D2F88830 		ldr	r3, [r2, #136]
 434 0226 23F44003 		bic	r3, r3, #12582912
 435 022a 216B     		ldr	r1, [r4, #48]
 436 022c 0B43     		orrs	r3, r3, r1
 437 022e C2F88830 		str	r3, [r2, #136]
 374:Drivers/STM32G4xx_HAL_Driver/Src/stm32g4xx_hal_rcc_ex.c ****     
 375:Drivers/STM32G4xx_HAL_Driver/Src/stm32g4xx_hal_rcc_ex.c ****     if(PeriphClkInit->I2sClockSelection == RCC_I2SCLKSOURCE_PLL)
 438              		.loc 1 375 5 view .LVU142
 439              		.loc 1 375 21 is_stmt 0 view .LVU143
 440 0232 236B     		ldr	r3, [r4, #48]
 441              		.loc 1 375 7 view .LVU144
 442 0234 B3F5800F 		cmp	r3, #4194304
 443 0238 6DD0     		beq	.L38
 444              	.L23:
 376:Drivers/STM32G4xx_HAL_Driver/Src/stm32g4xx_hal_rcc_ex.c ****     {
 377:Drivers/STM32G4xx_HAL_Driver/Src/stm32g4xx_hal_rcc_ex.c ****       /* Enable PLL48M1CLK output */
 378:Drivers/STM32G4xx_HAL_Driver/Src/stm32g4xx_hal_rcc_ex.c ****       __HAL_RCC_PLLCLKOUT_ENABLE(RCC_PLL_48M1CLK);
 379:Drivers/STM32G4xx_HAL_Driver/Src/stm32g4xx_hal_rcc_ex.c ****     }
 380:Drivers/STM32G4xx_HAL_Driver/Src/stm32g4xx_hal_rcc_ex.c ****   }
 381:Drivers/STM32G4xx_HAL_Driver/Src/stm32g4xx_hal_rcc_ex.c **** 
 382:Drivers/STM32G4xx_HAL_Driver/Src/stm32g4xx_hal_rcc_ex.c **** #endif /* SPI_I2S_SUPPORT */
 383:Drivers/STM32G4xx_HAL_Driver/Src/stm32g4xx_hal_rcc_ex.c **** 
 384:Drivers/STM32G4xx_HAL_Driver/Src/stm32g4xx_hal_rcc_ex.c **** #if defined(FDCAN1)
 385:Drivers/STM32G4xx_HAL_Driver/Src/stm32g4xx_hal_rcc_ex.c ****   /*-------------------------- FDCAN clock source configuration ---------------------*/
 386:Drivers/STM32G4xx_HAL_Driver/Src/stm32g4xx_hal_rcc_ex.c ****   if(((PeriphClkInit->PeriphClockSelection) & RCC_PERIPHCLK_FDCAN) == RCC_PERIPHCLK_FDCAN)
 445              		.loc 1 386 3 is_stmt 1 view .LVU145
 446              		.loc 1 386 21 is_stmt 0 view .LVU146
 447 023a 2368     		ldr	r3, [r4]
 448              		.loc 1 386 5 view .LVU147
 449 023c 13F4805F 		tst	r3, #4096
 450 0240 0CD0     		beq	.L24
 387:Drivers/STM32G4xx_HAL_Driver/Src/stm32g4xx_hal_rcc_ex.c ****   {
 388:Drivers/STM32G4xx_HAL_Driver/Src/stm32g4xx_hal_rcc_ex.c ****     /* Check the parameters */
ARM GAS  C:\Users\aniru.000\AppData\Local\Temp\ccGZAzIF.s 			page 16


 389:Drivers/STM32G4xx_HAL_Driver/Src/stm32g4xx_hal_rcc_ex.c ****     assert_param(IS_RCC_FDCANCLKSOURCE(PeriphClkInit->FdcanClockSelection));
 451              		.loc 1 389 5 is_stmt 1 view .LVU148
 390:Drivers/STM32G4xx_HAL_Driver/Src/stm32g4xx_hal_rcc_ex.c **** 
 391:Drivers/STM32G4xx_HAL_Driver/Src/stm32g4xx_hal_rcc_ex.c ****     /* Configure the FDCAN interface clock source */
 392:Drivers/STM32G4xx_HAL_Driver/Src/stm32g4xx_hal_rcc_ex.c ****     __HAL_RCC_FDCAN_CONFIG(PeriphClkInit->FdcanClockSelection);
 452              		.loc 1 392 5 view .LVU149
 453 0242 464A     		ldr	r2, .L47
 454 0244 D2F88830 		ldr	r3, [r2, #136]
 455 0248 23F04073 		bic	r3, r3, #50331648
 456 024c 616B     		ldr	r1, [r4, #52]
 457 024e 0B43     		orrs	r3, r3, r1
 458 0250 C2F88830 		str	r3, [r2, #136]
 393:Drivers/STM32G4xx_HAL_Driver/Src/stm32g4xx_hal_rcc_ex.c ****     
 394:Drivers/STM32G4xx_HAL_Driver/Src/stm32g4xx_hal_rcc_ex.c ****     if(PeriphClkInit->FdcanClockSelection == RCC_FDCANCLKSOURCE_PLL)
 459              		.loc 1 394 5 view .LVU150
 460              		.loc 1 394 21 is_stmt 0 view .LVU151
 461 0254 636B     		ldr	r3, [r4, #52]
 462              		.loc 1 394 7 view .LVU152
 463 0256 B3F1807F 		cmp	r3, #16777216
 464 025a 61D0     		beq	.L39
 465              	.L24:
 395:Drivers/STM32G4xx_HAL_Driver/Src/stm32g4xx_hal_rcc_ex.c ****     {
 396:Drivers/STM32G4xx_HAL_Driver/Src/stm32g4xx_hal_rcc_ex.c ****       /* Enable PLL48M1CLK output */
 397:Drivers/STM32G4xx_HAL_Driver/Src/stm32g4xx_hal_rcc_ex.c ****       __HAL_RCC_PLLCLKOUT_ENABLE(RCC_PLL_48M1CLK);
 398:Drivers/STM32G4xx_HAL_Driver/Src/stm32g4xx_hal_rcc_ex.c ****     }
 399:Drivers/STM32G4xx_HAL_Driver/Src/stm32g4xx_hal_rcc_ex.c ****   }
 400:Drivers/STM32G4xx_HAL_Driver/Src/stm32g4xx_hal_rcc_ex.c **** #endif /* FDCAN1 */
 401:Drivers/STM32G4xx_HAL_Driver/Src/stm32g4xx_hal_rcc_ex.c **** 
 402:Drivers/STM32G4xx_HAL_Driver/Src/stm32g4xx_hal_rcc_ex.c **** #if defined(USB)
 403:Drivers/STM32G4xx_HAL_Driver/Src/stm32g4xx_hal_rcc_ex.c **** 
 404:Drivers/STM32G4xx_HAL_Driver/Src/stm32g4xx_hal_rcc_ex.c ****   /*-------------------------- USB clock source configuration ----------------------*/
 405:Drivers/STM32G4xx_HAL_Driver/Src/stm32g4xx_hal_rcc_ex.c ****   if(((PeriphClkInit->PeriphClockSelection) & RCC_PERIPHCLK_USB) == (RCC_PERIPHCLK_USB))
 466              		.loc 1 405 3 is_stmt 1 view .LVU153
 467              		.loc 1 405 21 is_stmt 0 view .LVU154
 468 025c 2368     		ldr	r3, [r4]
 469              		.loc 1 405 5 view .LVU155
 470 025e 13F4005F 		tst	r3, #8192
 471 0262 0CD0     		beq	.L25
 406:Drivers/STM32G4xx_HAL_Driver/Src/stm32g4xx_hal_rcc_ex.c ****   {
 407:Drivers/STM32G4xx_HAL_Driver/Src/stm32g4xx_hal_rcc_ex.c ****     assert_param(IS_RCC_USBCLKSOURCE(PeriphClkInit->UsbClockSelection));
 472              		.loc 1 407 5 is_stmt 1 view .LVU156
 408:Drivers/STM32G4xx_HAL_Driver/Src/stm32g4xx_hal_rcc_ex.c ****     __HAL_RCC_USB_CONFIG(PeriphClkInit->UsbClockSelection);
 473              		.loc 1 408 5 view .LVU157
 474 0264 3D4A     		ldr	r2, .L47
 475 0266 D2F88830 		ldr	r3, [r2, #136]
 476 026a 23F04063 		bic	r3, r3, #201326592
 477 026e A16B     		ldr	r1, [r4, #56]
 478 0270 0B43     		orrs	r3, r3, r1
 479 0272 C2F88830 		str	r3, [r2, #136]
 409:Drivers/STM32G4xx_HAL_Driver/Src/stm32g4xx_hal_rcc_ex.c **** 
 410:Drivers/STM32G4xx_HAL_Driver/Src/stm32g4xx_hal_rcc_ex.c ****     if(PeriphClkInit->UsbClockSelection == RCC_USBCLKSOURCE_PLL)
 480              		.loc 1 410 5 view .LVU158
 481              		.loc 1 410 21 is_stmt 0 view .LVU159
 482 0276 A36B     		ldr	r3, [r4, #56]
 483              		.loc 1 410 7 view .LVU160
 484 0278 B3F1006F 		cmp	r3, #134217728
 485 027c 55D0     		beq	.L40
ARM GAS  C:\Users\aniru.000\AppData\Local\Temp\ccGZAzIF.s 			page 17


 486              	.L25:
 411:Drivers/STM32G4xx_HAL_Driver/Src/stm32g4xx_hal_rcc_ex.c ****     {
 412:Drivers/STM32G4xx_HAL_Driver/Src/stm32g4xx_hal_rcc_ex.c ****       /* Enable PLL48M1CLK output */
 413:Drivers/STM32G4xx_HAL_Driver/Src/stm32g4xx_hal_rcc_ex.c ****       __HAL_RCC_PLLCLKOUT_ENABLE(RCC_PLL_48M1CLK);
 414:Drivers/STM32G4xx_HAL_Driver/Src/stm32g4xx_hal_rcc_ex.c ****     }
 415:Drivers/STM32G4xx_HAL_Driver/Src/stm32g4xx_hal_rcc_ex.c ****   }
 416:Drivers/STM32G4xx_HAL_Driver/Src/stm32g4xx_hal_rcc_ex.c **** 
 417:Drivers/STM32G4xx_HAL_Driver/Src/stm32g4xx_hal_rcc_ex.c **** #endif /* USB */
 418:Drivers/STM32G4xx_HAL_Driver/Src/stm32g4xx_hal_rcc_ex.c **** 
 419:Drivers/STM32G4xx_HAL_Driver/Src/stm32g4xx_hal_rcc_ex.c ****   /*-------------------------- RNG clock source configuration ----------------------*/
 420:Drivers/STM32G4xx_HAL_Driver/Src/stm32g4xx_hal_rcc_ex.c ****   if(((PeriphClkInit->PeriphClockSelection) & RCC_PERIPHCLK_RNG) == (RCC_PERIPHCLK_RNG))
 487              		.loc 1 420 3 is_stmt 1 view .LVU161
 488              		.loc 1 420 21 is_stmt 0 view .LVU162
 489 027e 2368     		ldr	r3, [r4]
 490              		.loc 1 420 5 view .LVU163
 491 0280 13F4804F 		tst	r3, #16384
 492 0284 0CD0     		beq	.L26
 421:Drivers/STM32G4xx_HAL_Driver/Src/stm32g4xx_hal_rcc_ex.c ****   {
 422:Drivers/STM32G4xx_HAL_Driver/Src/stm32g4xx_hal_rcc_ex.c ****     assert_param(IS_RCC_RNGCLKSOURCE(PeriphClkInit->RngClockSelection));
 493              		.loc 1 422 5 is_stmt 1 view .LVU164
 423:Drivers/STM32G4xx_HAL_Driver/Src/stm32g4xx_hal_rcc_ex.c ****     __HAL_RCC_RNG_CONFIG(PeriphClkInit->RngClockSelection);
 494              		.loc 1 423 5 view .LVU165
 495 0286 354A     		ldr	r2, .L47
 496 0288 D2F88830 		ldr	r3, [r2, #136]
 497 028c 23F04063 		bic	r3, r3, #201326592
 498 0290 E16B     		ldr	r1, [r4, #60]
 499 0292 0B43     		orrs	r3, r3, r1
 500 0294 C2F88830 		str	r3, [r2, #136]
 424:Drivers/STM32G4xx_HAL_Driver/Src/stm32g4xx_hal_rcc_ex.c **** 
 425:Drivers/STM32G4xx_HAL_Driver/Src/stm32g4xx_hal_rcc_ex.c ****     if(PeriphClkInit->RngClockSelection == RCC_RNGCLKSOURCE_PLL)
 501              		.loc 1 425 5 view .LVU166
 502              		.loc 1 425 21 is_stmt 0 view .LVU167
 503 0298 E36B     		ldr	r3, [r4, #60]
 504              		.loc 1 425 7 view .LVU168
 505 029a B3F1006F 		cmp	r3, #134217728
 506 029e 49D0     		beq	.L41
 507              	.L26:
 426:Drivers/STM32G4xx_HAL_Driver/Src/stm32g4xx_hal_rcc_ex.c ****     {
 427:Drivers/STM32G4xx_HAL_Driver/Src/stm32g4xx_hal_rcc_ex.c ****       /* Enable PLL48M1CLK output */
 428:Drivers/STM32G4xx_HAL_Driver/Src/stm32g4xx_hal_rcc_ex.c ****       __HAL_RCC_PLLCLKOUT_ENABLE(RCC_PLL_48M1CLK);
 429:Drivers/STM32G4xx_HAL_Driver/Src/stm32g4xx_hal_rcc_ex.c ****     }
 430:Drivers/STM32G4xx_HAL_Driver/Src/stm32g4xx_hal_rcc_ex.c ****   }
 431:Drivers/STM32G4xx_HAL_Driver/Src/stm32g4xx_hal_rcc_ex.c **** 
 432:Drivers/STM32G4xx_HAL_Driver/Src/stm32g4xx_hal_rcc_ex.c ****   /*-------------------------- ADC12 clock source configuration ----------------------*/
 433:Drivers/STM32G4xx_HAL_Driver/Src/stm32g4xx_hal_rcc_ex.c ****   if(((PeriphClkInit->PeriphClockSelection) & RCC_PERIPHCLK_ADC12) == RCC_PERIPHCLK_ADC12)
 508              		.loc 1 433 3 is_stmt 1 view .LVU169
 509              		.loc 1 433 21 is_stmt 0 view .LVU170
 510 02a0 2368     		ldr	r3, [r4]
 511              		.loc 1 433 5 view .LVU171
 512 02a2 13F4004F 		tst	r3, #32768
 513 02a6 0CD0     		beq	.L27
 434:Drivers/STM32G4xx_HAL_Driver/Src/stm32g4xx_hal_rcc_ex.c ****   {
 435:Drivers/STM32G4xx_HAL_Driver/Src/stm32g4xx_hal_rcc_ex.c ****     /* Check the parameters */
 436:Drivers/STM32G4xx_HAL_Driver/Src/stm32g4xx_hal_rcc_ex.c ****     assert_param(IS_RCC_ADC12CLKSOURCE(PeriphClkInit->Adc12ClockSelection));
 514              		.loc 1 436 5 is_stmt 1 view .LVU172
 437:Drivers/STM32G4xx_HAL_Driver/Src/stm32g4xx_hal_rcc_ex.c **** 
 438:Drivers/STM32G4xx_HAL_Driver/Src/stm32g4xx_hal_rcc_ex.c ****     /* Configure the ADC12 interface clock source */
ARM GAS  C:\Users\aniru.000\AppData\Local\Temp\ccGZAzIF.s 			page 18


 439:Drivers/STM32G4xx_HAL_Driver/Src/stm32g4xx_hal_rcc_ex.c ****     __HAL_RCC_ADC12_CONFIG(PeriphClkInit->Adc12ClockSelection);
 515              		.loc 1 439 5 view .LVU173
 516 02a8 2C4A     		ldr	r2, .L47
 517 02aa D2F88830 		ldr	r3, [r2, #136]
 518 02ae 23F04053 		bic	r3, r3, #805306368
 519 02b2 216C     		ldr	r1, [r4, #64]
 520 02b4 0B43     		orrs	r3, r3, r1
 521 02b6 C2F88830 		str	r3, [r2, #136]
 440:Drivers/STM32G4xx_HAL_Driver/Src/stm32g4xx_hal_rcc_ex.c ****     
 441:Drivers/STM32G4xx_HAL_Driver/Src/stm32g4xx_hal_rcc_ex.c ****     if(PeriphClkInit->Adc12ClockSelection == RCC_ADC12CLKSOURCE_PLL)
 522              		.loc 1 441 5 view .LVU174
 523              		.loc 1 441 21 is_stmt 0 view .LVU175
 524 02ba 236C     		ldr	r3, [r4, #64]
 525              		.loc 1 441 7 view .LVU176
 526 02bc B3F1805F 		cmp	r3, #268435456
 527 02c0 3DD0     		beq	.L42
 528              	.L27:
 442:Drivers/STM32G4xx_HAL_Driver/Src/stm32g4xx_hal_rcc_ex.c ****     {
 443:Drivers/STM32G4xx_HAL_Driver/Src/stm32g4xx_hal_rcc_ex.c ****       /* Enable PLLADCCLK output */
 444:Drivers/STM32G4xx_HAL_Driver/Src/stm32g4xx_hal_rcc_ex.c ****       __HAL_RCC_PLLCLKOUT_ENABLE(RCC_PLL_ADCCLK);
 445:Drivers/STM32G4xx_HAL_Driver/Src/stm32g4xx_hal_rcc_ex.c ****     }
 446:Drivers/STM32G4xx_HAL_Driver/Src/stm32g4xx_hal_rcc_ex.c ****   }
 447:Drivers/STM32G4xx_HAL_Driver/Src/stm32g4xx_hal_rcc_ex.c ****   
 448:Drivers/STM32G4xx_HAL_Driver/Src/stm32g4xx_hal_rcc_ex.c **** #if defined(ADC345_COMMON)
 449:Drivers/STM32G4xx_HAL_Driver/Src/stm32g4xx_hal_rcc_ex.c ****   /*-------------------------- ADC345 clock source configuration ----------------------*/
 450:Drivers/STM32G4xx_HAL_Driver/Src/stm32g4xx_hal_rcc_ex.c ****   if(((PeriphClkInit->PeriphClockSelection) & RCC_PERIPHCLK_ADC345) == RCC_PERIPHCLK_ADC345)
 529              		.loc 1 450 3 is_stmt 1 view .LVU177
 530              		.loc 1 450 21 is_stmt 0 view .LVU178
 531 02c2 2368     		ldr	r3, [r4]
 532              		.loc 1 450 5 view .LVU179
 533 02c4 13F4803F 		tst	r3, #65536
 534 02c8 0CD0     		beq	.L28
 451:Drivers/STM32G4xx_HAL_Driver/Src/stm32g4xx_hal_rcc_ex.c ****   {
 452:Drivers/STM32G4xx_HAL_Driver/Src/stm32g4xx_hal_rcc_ex.c ****     /* Check the parameters */
 453:Drivers/STM32G4xx_HAL_Driver/Src/stm32g4xx_hal_rcc_ex.c ****     assert_param(IS_RCC_ADC345CLKSOURCE(PeriphClkInit->Adc345ClockSelection));
 535              		.loc 1 453 5 is_stmt 1 view .LVU180
 454:Drivers/STM32G4xx_HAL_Driver/Src/stm32g4xx_hal_rcc_ex.c **** 
 455:Drivers/STM32G4xx_HAL_Driver/Src/stm32g4xx_hal_rcc_ex.c ****     /* Configure the ADC345 interface clock source */
 456:Drivers/STM32G4xx_HAL_Driver/Src/stm32g4xx_hal_rcc_ex.c ****     __HAL_RCC_ADC345_CONFIG(PeriphClkInit->Adc345ClockSelection);
 536              		.loc 1 456 5 view .LVU181
 537 02ca 244A     		ldr	r2, .L47
 538 02cc D2F88830 		ldr	r3, [r2, #136]
 539 02d0 23F04043 		bic	r3, r3, #-1073741824
 540 02d4 616C     		ldr	r1, [r4, #68]
 541 02d6 0B43     		orrs	r3, r3, r1
 542 02d8 C2F88830 		str	r3, [r2, #136]
 457:Drivers/STM32G4xx_HAL_Driver/Src/stm32g4xx_hal_rcc_ex.c ****     
 458:Drivers/STM32G4xx_HAL_Driver/Src/stm32g4xx_hal_rcc_ex.c ****     if(PeriphClkInit->Adc345ClockSelection == RCC_ADC345CLKSOURCE_PLL)
 543              		.loc 1 458 5 view .LVU182
 544              		.loc 1 458 21 is_stmt 0 view .LVU183
 545 02dc 636C     		ldr	r3, [r4, #68]
 546              		.loc 1 458 7 view .LVU184
 547 02de B3F1804F 		cmp	r3, #1073741824
 548 02e2 31D0     		beq	.L43
 549              	.L28:
 459:Drivers/STM32G4xx_HAL_Driver/Src/stm32g4xx_hal_rcc_ex.c ****     {
 460:Drivers/STM32G4xx_HAL_Driver/Src/stm32g4xx_hal_rcc_ex.c ****       /* Enable PLLADCCLK output */
ARM GAS  C:\Users\aniru.000\AppData\Local\Temp\ccGZAzIF.s 			page 19


 461:Drivers/STM32G4xx_HAL_Driver/Src/stm32g4xx_hal_rcc_ex.c ****       __HAL_RCC_PLLCLKOUT_ENABLE(RCC_PLL_ADCCLK);
 462:Drivers/STM32G4xx_HAL_Driver/Src/stm32g4xx_hal_rcc_ex.c ****     }
 463:Drivers/STM32G4xx_HAL_Driver/Src/stm32g4xx_hal_rcc_ex.c ****   }
 464:Drivers/STM32G4xx_HAL_Driver/Src/stm32g4xx_hal_rcc_ex.c **** #endif /* ADC345_COMMON */
 465:Drivers/STM32G4xx_HAL_Driver/Src/stm32g4xx_hal_rcc_ex.c **** 
 466:Drivers/STM32G4xx_HAL_Driver/Src/stm32g4xx_hal_rcc_ex.c **** #if defined(QUADSPI)
 467:Drivers/STM32G4xx_HAL_Driver/Src/stm32g4xx_hal_rcc_ex.c **** 
 468:Drivers/STM32G4xx_HAL_Driver/Src/stm32g4xx_hal_rcc_ex.c ****   /*-------------------------- QuadSPIx clock source configuration ----------------*/
 469:Drivers/STM32G4xx_HAL_Driver/Src/stm32g4xx_hal_rcc_ex.c ****   if(((PeriphClkInit->PeriphClockSelection) & RCC_PERIPHCLK_QSPI) == RCC_PERIPHCLK_QSPI)
 550              		.loc 1 469 3 is_stmt 1 view .LVU185
 551              		.loc 1 469 21 is_stmt 0 view .LVU186
 552 02e4 2368     		ldr	r3, [r4]
 553              		.loc 1 469 5 view .LVU187
 554 02e6 13F4802F 		tst	r3, #262144
 555 02ea 0CD0     		beq	.L29
 470:Drivers/STM32G4xx_HAL_Driver/Src/stm32g4xx_hal_rcc_ex.c ****   {
 471:Drivers/STM32G4xx_HAL_Driver/Src/stm32g4xx_hal_rcc_ex.c ****     /* Check the parameters */
 472:Drivers/STM32G4xx_HAL_Driver/Src/stm32g4xx_hal_rcc_ex.c ****     assert_param(IS_RCC_QSPICLKSOURCE(PeriphClkInit->QspiClockSelection));
 556              		.loc 1 472 5 is_stmt 1 view .LVU188
 473:Drivers/STM32G4xx_HAL_Driver/Src/stm32g4xx_hal_rcc_ex.c **** 
 474:Drivers/STM32G4xx_HAL_Driver/Src/stm32g4xx_hal_rcc_ex.c ****     /* Configure the QuadSPI clock source */
 475:Drivers/STM32G4xx_HAL_Driver/Src/stm32g4xx_hal_rcc_ex.c ****     __HAL_RCC_QSPI_CONFIG(PeriphClkInit->QspiClockSelection);
 557              		.loc 1 475 5 view .LVU189
 558 02ec 1B4A     		ldr	r2, .L47
 559 02ee D2F89C30 		ldr	r3, [r2, #156]
 560 02f2 23F44013 		bic	r3, r3, #3145728
 561 02f6 A16C     		ldr	r1, [r4, #72]
 562 02f8 0B43     		orrs	r3, r3, r1
 563 02fa C2F89C30 		str	r3, [r2, #156]
 476:Drivers/STM32G4xx_HAL_Driver/Src/stm32g4xx_hal_rcc_ex.c **** 
 477:Drivers/STM32G4xx_HAL_Driver/Src/stm32g4xx_hal_rcc_ex.c ****     if(PeriphClkInit->QspiClockSelection == RCC_QSPICLKSOURCE_PLL)
 564              		.loc 1 477 5 view .LVU190
 565              		.loc 1 477 21 is_stmt 0 view .LVU191
 566 02fe A36C     		ldr	r3, [r4, #72]
 567              		.loc 1 477 7 view .LVU192
 568 0300 B3F5001F 		cmp	r3, #2097152
 569 0304 25D0     		beq	.L44
 570              	.L29:
 478:Drivers/STM32G4xx_HAL_Driver/Src/stm32g4xx_hal_rcc_ex.c ****     {
 479:Drivers/STM32G4xx_HAL_Driver/Src/stm32g4xx_hal_rcc_ex.c ****       /* Enable PLL48M1CLK output */
 480:Drivers/STM32G4xx_HAL_Driver/Src/stm32g4xx_hal_rcc_ex.c ****       __HAL_RCC_PLLCLKOUT_ENABLE(RCC_PLL_48M1CLK);
 481:Drivers/STM32G4xx_HAL_Driver/Src/stm32g4xx_hal_rcc_ex.c ****     }
 482:Drivers/STM32G4xx_HAL_Driver/Src/stm32g4xx_hal_rcc_ex.c ****   }
 483:Drivers/STM32G4xx_HAL_Driver/Src/stm32g4xx_hal_rcc_ex.c **** 
 484:Drivers/STM32G4xx_HAL_Driver/Src/stm32g4xx_hal_rcc_ex.c **** #endif /* QUADSPI */
 485:Drivers/STM32G4xx_HAL_Driver/Src/stm32g4xx_hal_rcc_ex.c **** 
 486:Drivers/STM32G4xx_HAL_Driver/Src/stm32g4xx_hal_rcc_ex.c ****   return status;
 571              		.loc 1 486 3 is_stmt 1 view .LVU193
 487:Drivers/STM32G4xx_HAL_Driver/Src/stm32g4xx_hal_rcc_ex.c **** }
 572              		.loc 1 487 1 is_stmt 0 view .LVU194
 573 0306 2846     		mov	r0, r5
 574 0308 03B0     		add	sp, sp, #12
 575              		.cfi_remember_state
 576              		.cfi_def_cfa_offset 20
 577              		@ sp needed
 578 030a F0BD     		pop	{r4, r5, r6, r7, pc}
 579              	.LVL25:
ARM GAS  C:\Users\aniru.000\AppData\Local\Temp\ccGZAzIF.s 			page 20


 580              	.L37:
 581              		.cfi_restore_state
 359:Drivers/STM32G4xx_HAL_Driver/Src/stm32g4xx_hal_rcc_ex.c ****     }
 582              		.loc 1 359 7 is_stmt 1 view .LVU195
 583 030c D368     		ldr	r3, [r2, #12]
 584 030e 43F48013 		orr	r3, r3, #1048576
 585 0312 D360     		str	r3, [r2, #12]
 586 0314 80E7     		b	.L22
 587              	.L38:
 378:Drivers/STM32G4xx_HAL_Driver/Src/stm32g4xx_hal_rcc_ex.c ****     }
 588              		.loc 1 378 7 view .LVU196
 589 0316 D368     		ldr	r3, [r2, #12]
 590 0318 43F48013 		orr	r3, r3, #1048576
 591 031c D360     		str	r3, [r2, #12]
 592 031e 8CE7     		b	.L23
 593              	.L39:
 397:Drivers/STM32G4xx_HAL_Driver/Src/stm32g4xx_hal_rcc_ex.c ****     }
 594              		.loc 1 397 7 view .LVU197
 595 0320 D368     		ldr	r3, [r2, #12]
 596 0322 43F48013 		orr	r3, r3, #1048576
 597 0326 D360     		str	r3, [r2, #12]
 598 0328 98E7     		b	.L24
 599              	.L40:
 413:Drivers/STM32G4xx_HAL_Driver/Src/stm32g4xx_hal_rcc_ex.c ****     }
 600              		.loc 1 413 7 view .LVU198
 601 032a D368     		ldr	r3, [r2, #12]
 602 032c 43F48013 		orr	r3, r3, #1048576
 603 0330 D360     		str	r3, [r2, #12]
 604 0332 A4E7     		b	.L25
 605              	.L41:
 428:Drivers/STM32G4xx_HAL_Driver/Src/stm32g4xx_hal_rcc_ex.c ****     }
 606              		.loc 1 428 7 view .LVU199
 607 0334 D368     		ldr	r3, [r2, #12]
 608 0336 43F48013 		orr	r3, r3, #1048576
 609 033a D360     		str	r3, [r2, #12]
 610 033c B0E7     		b	.L26
 611              	.L42:
 444:Drivers/STM32G4xx_HAL_Driver/Src/stm32g4xx_hal_rcc_ex.c ****     }
 612              		.loc 1 444 7 view .LVU200
 613 033e D368     		ldr	r3, [r2, #12]
 614 0340 43F48033 		orr	r3, r3, #65536
 615 0344 D360     		str	r3, [r2, #12]
 616 0346 BCE7     		b	.L27
 617              	.L43:
 461:Drivers/STM32G4xx_HAL_Driver/Src/stm32g4xx_hal_rcc_ex.c ****     }
 618              		.loc 1 461 7 view .LVU201
 619 0348 D368     		ldr	r3, [r2, #12]
 620 034a 43F48033 		orr	r3, r3, #65536
 621 034e D360     		str	r3, [r2, #12]
 622 0350 C8E7     		b	.L28
 623              	.L44:
 480:Drivers/STM32G4xx_HAL_Driver/Src/stm32g4xx_hal_rcc_ex.c ****     }
 624              		.loc 1 480 7 view .LVU202
 625 0352 D368     		ldr	r3, [r2, #12]
 626 0354 43F48013 		orr	r3, r3, #1048576
 627 0358 D360     		str	r3, [r2, #12]
 628 035a D4E7     		b	.L29
ARM GAS  C:\Users\aniru.000\AppData\Local\Temp\ccGZAzIF.s 			page 21


 629              	.L48:
 630              		.align	2
 631              	.L47:
 632 035c 00100240 		.word	1073876992
 633              		.cfi_endproc
 634              	.LFE132:
 636              		.section	.text.HAL_RCCEx_GetPeriphCLKConfig,"ax",%progbits
 637              		.align	1
 638              		.global	HAL_RCCEx_GetPeriphCLKConfig
 639              		.syntax unified
 640              		.thumb
 641              		.thumb_func
 643              	HAL_RCCEx_GetPeriphCLKConfig:
 644              	.LVL26:
 645              	.LFB133:
 488:Drivers/STM32G4xx_HAL_Driver/Src/stm32g4xx_hal_rcc_ex.c **** 
 489:Drivers/STM32G4xx_HAL_Driver/Src/stm32g4xx_hal_rcc_ex.c **** /**
 490:Drivers/STM32G4xx_HAL_Driver/Src/stm32g4xx_hal_rcc_ex.c ****   * @brief  Get the RCC_ClkInitStruct according to the internal RCC configuration registers.
 491:Drivers/STM32G4xx_HAL_Driver/Src/stm32g4xx_hal_rcc_ex.c ****   * @param  PeriphClkInit  pointer to an RCC_PeriphCLKInitTypeDef structure that
 492:Drivers/STM32G4xx_HAL_Driver/Src/stm32g4xx_hal_rcc_ex.c ****   *         returns the configuration information for the Extended Peripherals
 493:Drivers/STM32G4xx_HAL_Driver/Src/stm32g4xx_hal_rcc_ex.c ****   *         clocks(USART1, USART2, USART3, UART4, UART5, LPUART1, I2C1, I2C2, I2C3, I2C4,
 494:Drivers/STM32G4xx_HAL_Driver/Src/stm32g4xx_hal_rcc_ex.c ****   *         LPTIM1, SAI1, I2Sx, FDCANx, USB, RNG, ADCx, RTC, QSPI).
 495:Drivers/STM32G4xx_HAL_Driver/Src/stm32g4xx_hal_rcc_ex.c ****   * @retval None
 496:Drivers/STM32G4xx_HAL_Driver/Src/stm32g4xx_hal_rcc_ex.c ****   */
 497:Drivers/STM32G4xx_HAL_Driver/Src/stm32g4xx_hal_rcc_ex.c **** void HAL_RCCEx_GetPeriphCLKConfig(RCC_PeriphCLKInitTypeDef  *PeriphClkInit)
 498:Drivers/STM32G4xx_HAL_Driver/Src/stm32g4xx_hal_rcc_ex.c **** {
 646              		.loc 1 498 1 view -0
 647              		.cfi_startproc
 648              		@ args = 0, pretend = 0, frame = 0
 649              		@ frame_needed = 0, uses_anonymous_args = 0
 650              		@ link register save eliminated.
 499:Drivers/STM32G4xx_HAL_Driver/Src/stm32g4xx_hal_rcc_ex.c ****   /* Set all possible values for the extended clock type parameter------------*/
 500:Drivers/STM32G4xx_HAL_Driver/Src/stm32g4xx_hal_rcc_ex.c **** 
 501:Drivers/STM32G4xx_HAL_Driver/Src/stm32g4xx_hal_rcc_ex.c **** #if defined(STM32G474xx) || defined(STM32G484xx)
 502:Drivers/STM32G4xx_HAL_Driver/Src/stm32g4xx_hal_rcc_ex.c **** 
 503:Drivers/STM32G4xx_HAL_Driver/Src/stm32g4xx_hal_rcc_ex.c ****   PeriphClkInit->PeriphClockSelection = RCC_PERIPHCLK_USART1  | RCC_PERIPHCLK_USART2 | RCC_PERIPHCL
 504:Drivers/STM32G4xx_HAL_Driver/Src/stm32g4xx_hal_rcc_ex.c ****                                         RCC_PERIPHCLK_UART5   | \
 505:Drivers/STM32G4xx_HAL_Driver/Src/stm32g4xx_hal_rcc_ex.c ****                                         RCC_PERIPHCLK_LPUART1 | RCC_PERIPHCLK_I2C1   | RCC_PERIPHCL
 506:Drivers/STM32G4xx_HAL_Driver/Src/stm32g4xx_hal_rcc_ex.c ****                                         RCC_PERIPHCLK_I2C4    | \
 507:Drivers/STM32G4xx_HAL_Driver/Src/stm32g4xx_hal_rcc_ex.c ****                                         RCC_PERIPHCLK_LPTIM1  | RCC_PERIPHCLK_SAI1   | RCC_PERIPHCL
 508:Drivers/STM32G4xx_HAL_Driver/Src/stm32g4xx_hal_rcc_ex.c ****                                         RCC_PERIPHCLK_RNG     | RCC_PERIPHCLK_USB    | RCC_PERIPHCL
 509:Drivers/STM32G4xx_HAL_Driver/Src/stm32g4xx_hal_rcc_ex.c ****                                         RCC_PERIPHCLK_QSPI    | \
 510:Drivers/STM32G4xx_HAL_Driver/Src/stm32g4xx_hal_rcc_ex.c ****                                         RCC_PERIPHCLK_RTC;
 511:Drivers/STM32G4xx_HAL_Driver/Src/stm32g4xx_hal_rcc_ex.c **** 
 512:Drivers/STM32G4xx_HAL_Driver/Src/stm32g4xx_hal_rcc_ex.c **** #elif defined(STM32G414xx)
 513:Drivers/STM32G4xx_HAL_Driver/Src/stm32g4xx_hal_rcc_ex.c **** 
 514:Drivers/STM32G4xx_HAL_Driver/Src/stm32g4xx_hal_rcc_ex.c ****   PeriphClkInit->PeriphClockSelection = RCC_PERIPHCLK_USART1  | RCC_PERIPHCLK_USART2  | RCC_PERIPHC
 515:Drivers/STM32G4xx_HAL_Driver/Src/stm32g4xx_hal_rcc_ex.c ****                                         RCC_PERIPHCLK_LPTIM1  | RCC_PERIPHCLK_I2S     | RCC_PERIPHC
 516:Drivers/STM32G4xx_HAL_Driver/Src/stm32g4xx_hal_rcc_ex.c ****                                         RCC_PERIPHCLK_ADC12   | RCC_PERIPHCLK_RTC;
 517:Drivers/STM32G4xx_HAL_Driver/Src/stm32g4xx_hal_rcc_ex.c **** 
 518:Drivers/STM32G4xx_HAL_Driver/Src/stm32g4xx_hal_rcc_ex.c **** #elif defined(STM32G491xx) || defined(STM32G4A1xx)
 519:Drivers/STM32G4xx_HAL_Driver/Src/stm32g4xx_hal_rcc_ex.c **** 
 520:Drivers/STM32G4xx_HAL_Driver/Src/stm32g4xx_hal_rcc_ex.c ****   PeriphClkInit->PeriphClockSelection = RCC_PERIPHCLK_USART1  | RCC_PERIPHCLK_USART2 | RCC_PERIPHCL
 651              		.loc 1 520 3 view .LVU204
 652              		.loc 1 520 39 is_stmt 0 view .LVU205
 653 0000 314B     		ldr	r3, .L50
 654 0002 0360     		str	r3, [r0]
ARM GAS  C:\Users\aniru.000\AppData\Local\Temp\ccGZAzIF.s 			page 22


 521:Drivers/STM32G4xx_HAL_Driver/Src/stm32g4xx_hal_rcc_ex.c ****                                         RCC_PERIPHCLK_UART5   | \
 522:Drivers/STM32G4xx_HAL_Driver/Src/stm32g4xx_hal_rcc_ex.c ****                                         RCC_PERIPHCLK_LPUART1 | RCC_PERIPHCLK_I2C1   | RCC_PERIPHCL
 523:Drivers/STM32G4xx_HAL_Driver/Src/stm32g4xx_hal_rcc_ex.c ****                                         RCC_PERIPHCLK_LPTIM1  | RCC_PERIPHCLK_SAI1   | RCC_PERIPHCL
 524:Drivers/STM32G4xx_HAL_Driver/Src/stm32g4xx_hal_rcc_ex.c ****                                         RCC_PERIPHCLK_RNG     | RCC_PERIPHCLK_USB    | RCC_PERIPHCL
 525:Drivers/STM32G4xx_HAL_Driver/Src/stm32g4xx_hal_rcc_ex.c ****                                         RCC_PERIPHCLK_QSPI    | \
 526:Drivers/STM32G4xx_HAL_Driver/Src/stm32g4xx_hal_rcc_ex.c ****                                         RCC_PERIPHCLK_RTC;
 527:Drivers/STM32G4xx_HAL_Driver/Src/stm32g4xx_hal_rcc_ex.c **** 
 528:Drivers/STM32G4xx_HAL_Driver/Src/stm32g4xx_hal_rcc_ex.c **** #elif defined(STM32G473xx) || defined(STM32G483xx)
 529:Drivers/STM32G4xx_HAL_Driver/Src/stm32g4xx_hal_rcc_ex.c **** 
 530:Drivers/STM32G4xx_HAL_Driver/Src/stm32g4xx_hal_rcc_ex.c ****   PeriphClkInit->PeriphClockSelection = RCC_PERIPHCLK_USART1  | RCC_PERIPHCLK_USART2 | RCC_PERIPHCL
 531:Drivers/STM32G4xx_HAL_Driver/Src/stm32g4xx_hal_rcc_ex.c ****                                         RCC_PERIPHCLK_UART5   | \
 532:Drivers/STM32G4xx_HAL_Driver/Src/stm32g4xx_hal_rcc_ex.c ****                                         RCC_PERIPHCLK_LPUART1 | RCC_PERIPHCLK_I2C1   | RCC_PERIPHCL
 533:Drivers/STM32G4xx_HAL_Driver/Src/stm32g4xx_hal_rcc_ex.c ****                                         RCC_PERIPHCLK_I2C4    | \
 534:Drivers/STM32G4xx_HAL_Driver/Src/stm32g4xx_hal_rcc_ex.c ****                                         RCC_PERIPHCLK_LPTIM1  | RCC_PERIPHCLK_SAI1   | RCC_PERIPHCL
 535:Drivers/STM32G4xx_HAL_Driver/Src/stm32g4xx_hal_rcc_ex.c ****                                         RCC_PERIPHCLK_RNG     | RCC_PERIPHCLK_USB    | RCC_PERIPHCL
 536:Drivers/STM32G4xx_HAL_Driver/Src/stm32g4xx_hal_rcc_ex.c ****                                         RCC_PERIPHCLK_QSPI    | \
 537:Drivers/STM32G4xx_HAL_Driver/Src/stm32g4xx_hal_rcc_ex.c ****                                         RCC_PERIPHCLK_RTC;
 538:Drivers/STM32G4xx_HAL_Driver/Src/stm32g4xx_hal_rcc_ex.c **** 
 539:Drivers/STM32G4xx_HAL_Driver/Src/stm32g4xx_hal_rcc_ex.c **** #elif defined(STM32G471xx)
 540:Drivers/STM32G4xx_HAL_Driver/Src/stm32g4xx_hal_rcc_ex.c **** 
 541:Drivers/STM32G4xx_HAL_Driver/Src/stm32g4xx_hal_rcc_ex.c ****   PeriphClkInit->PeriphClockSelection = RCC_PERIPHCLK_USART1  | RCC_PERIPHCLK_USART2 | RCC_PERIPHCL
 542:Drivers/STM32G4xx_HAL_Driver/Src/stm32g4xx_hal_rcc_ex.c ****                                         RCC_PERIPHCLK_UART5   | \
 543:Drivers/STM32G4xx_HAL_Driver/Src/stm32g4xx_hal_rcc_ex.c ****                                         RCC_PERIPHCLK_LPUART1 | RCC_PERIPHCLK_I2C1   | RCC_PERIPHCL
 544:Drivers/STM32G4xx_HAL_Driver/Src/stm32g4xx_hal_rcc_ex.c ****                                         RCC_PERIPHCLK_I2C4    | \
 545:Drivers/STM32G4xx_HAL_Driver/Src/stm32g4xx_hal_rcc_ex.c ****                                         RCC_PERIPHCLK_LPTIM1  | RCC_PERIPHCLK_SAI1   | RCC_PERIPHCL
 546:Drivers/STM32G4xx_HAL_Driver/Src/stm32g4xx_hal_rcc_ex.c ****                                         RCC_PERIPHCLK_RNG     | RCC_PERIPHCLK_USB    | RCC_PERIPHCL
 547:Drivers/STM32G4xx_HAL_Driver/Src/stm32g4xx_hal_rcc_ex.c ****                                         RCC_PERIPHCLK_RTC;
 548:Drivers/STM32G4xx_HAL_Driver/Src/stm32g4xx_hal_rcc_ex.c **** 
 549:Drivers/STM32G4xx_HAL_Driver/Src/stm32g4xx_hal_rcc_ex.c **** #elif defined(STM32G431xx) || defined(STM32G441xx)
 550:Drivers/STM32G4xx_HAL_Driver/Src/stm32g4xx_hal_rcc_ex.c **** 
 551:Drivers/STM32G4xx_HAL_Driver/Src/stm32g4xx_hal_rcc_ex.c ****   PeriphClkInit->PeriphClockSelection = RCC_PERIPHCLK_USART1  | RCC_PERIPHCLK_USART2 | RCC_PERIPHCL
 552:Drivers/STM32G4xx_HAL_Driver/Src/stm32g4xx_hal_rcc_ex.c ****                                         RCC_PERIPHCLK_LPUART1 | RCC_PERIPHCLK_I2C1   | RCC_PERIPHCL
 553:Drivers/STM32G4xx_HAL_Driver/Src/stm32g4xx_hal_rcc_ex.c ****                                         RCC_PERIPHCLK_LPTIM1  | RCC_PERIPHCLK_SAI1   | RCC_PERIPHCL
 554:Drivers/STM32G4xx_HAL_Driver/Src/stm32g4xx_hal_rcc_ex.c ****                                         RCC_PERIPHCLK_RNG     | RCC_PERIPHCLK_USB    | RCC_PERIPHCL
 555:Drivers/STM32G4xx_HAL_Driver/Src/stm32g4xx_hal_rcc_ex.c ****                                         RCC_PERIPHCLK_RTC;
 556:Drivers/STM32G4xx_HAL_Driver/Src/stm32g4xx_hal_rcc_ex.c **** #elif defined(STM32G411xB) || defined(STM32G411xC)
 557:Drivers/STM32G4xx_HAL_Driver/Src/stm32g4xx_hal_rcc_ex.c **** 
 558:Drivers/STM32G4xx_HAL_Driver/Src/stm32g4xx_hal_rcc_ex.c ****   PeriphClkInit->PeriphClockSelection = RCC_PERIPHCLK_USART1  | RCC_PERIPHCLK_USART2 | RCC_PERIPHCL
 559:Drivers/STM32G4xx_HAL_Driver/Src/stm32g4xx_hal_rcc_ex.c ****                                         RCC_PERIPHCLK_LPUART1 | RCC_PERIPHCLK_I2C1   | RCC_PERIPHCL
 560:Drivers/STM32G4xx_HAL_Driver/Src/stm32g4xx_hal_rcc_ex.c ****                                         RCC_PERIPHCLK_LPTIM1  | RCC_PERIPHCLK_I2S    | RCC_PERIPHCL
 561:Drivers/STM32G4xx_HAL_Driver/Src/stm32g4xx_hal_rcc_ex.c ****                                         RCC_PERIPHCLK_RNG     | RCC_PERIPHCLK_ADC12  | RCC_PERIPHCL
 562:Drivers/STM32G4xx_HAL_Driver/Src/stm32g4xx_hal_rcc_ex.c **** 
 563:Drivers/STM32G4xx_HAL_Driver/Src/stm32g4xx_hal_rcc_ex.c **** #elif defined(STM32GBK1CB)
 564:Drivers/STM32G4xx_HAL_Driver/Src/stm32g4xx_hal_rcc_ex.c **** 
 565:Drivers/STM32G4xx_HAL_Driver/Src/stm32g4xx_hal_rcc_ex.c ****   PeriphClkInit->PeriphClockSelection = RCC_PERIPHCLK_USART1  | RCC_PERIPHCLK_USART2 | RCC_PERIPHCL
 566:Drivers/STM32G4xx_HAL_Driver/Src/stm32g4xx_hal_rcc_ex.c ****                                         RCC_PERIPHCLK_LPUART1 | RCC_PERIPHCLK_I2C1   | RCC_PERIPHCL
 567:Drivers/STM32G4xx_HAL_Driver/Src/stm32g4xx_hal_rcc_ex.c ****                                         RCC_PERIPHCLK_LPTIM1  | RCC_PERIPHCLK_SAI1   | RCC_PERIPHCL
 568:Drivers/STM32G4xx_HAL_Driver/Src/stm32g4xx_hal_rcc_ex.c ****                                         RCC_PERIPHCLK_RNG     | RCC_PERIPHCLK_USB    | RCC_PERIPHCL
 569:Drivers/STM32G4xx_HAL_Driver/Src/stm32g4xx_hal_rcc_ex.c ****                                         RCC_PERIPHCLK_RTC;
 570:Drivers/STM32G4xx_HAL_Driver/Src/stm32g4xx_hal_rcc_ex.c **** 
 571:Drivers/STM32G4xx_HAL_Driver/Src/stm32g4xx_hal_rcc_ex.c **** #endif /* STM32G474xx || STM32G484xx */
 572:Drivers/STM32G4xx_HAL_Driver/Src/stm32g4xx_hal_rcc_ex.c **** 
 573:Drivers/STM32G4xx_HAL_Driver/Src/stm32g4xx_hal_rcc_ex.c **** 
 574:Drivers/STM32G4xx_HAL_Driver/Src/stm32g4xx_hal_rcc_ex.c ****   /* Get the USART1 clock source ---------------------------------------------*/
 575:Drivers/STM32G4xx_HAL_Driver/Src/stm32g4xx_hal_rcc_ex.c ****   PeriphClkInit->Usart1ClockSelection  = __HAL_RCC_GET_USART1_SOURCE();
 655              		.loc 1 575 3 is_stmt 1 view .LVU206
 656              		.loc 1 575 42 is_stmt 0 view .LVU207
ARM GAS  C:\Users\aniru.000\AppData\Local\Temp\ccGZAzIF.s 			page 23


 657 0004 314B     		ldr	r3, .L50+4
 658 0006 D3F88820 		ldr	r2, [r3, #136]
 659 000a 02F00302 		and	r2, r2, #3
 660              		.loc 1 575 40 view .LVU208
 661 000e 4260     		str	r2, [r0, #4]
 576:Drivers/STM32G4xx_HAL_Driver/Src/stm32g4xx_hal_rcc_ex.c ****   /* Get the USART2 clock source ---------------------------------------------*/
 577:Drivers/STM32G4xx_HAL_Driver/Src/stm32g4xx_hal_rcc_ex.c ****   PeriphClkInit->Usart2ClockSelection  = __HAL_RCC_GET_USART2_SOURCE();
 662              		.loc 1 577 3 is_stmt 1 view .LVU209
 663              		.loc 1 577 42 is_stmt 0 view .LVU210
 664 0010 D3F88820 		ldr	r2, [r3, #136]
 665 0014 02F00C02 		and	r2, r2, #12
 666              		.loc 1 577 40 view .LVU211
 667 0018 8260     		str	r2, [r0, #8]
 578:Drivers/STM32G4xx_HAL_Driver/Src/stm32g4xx_hal_rcc_ex.c **** 
 579:Drivers/STM32G4xx_HAL_Driver/Src/stm32g4xx_hal_rcc_ex.c **** #if defined(USART3)
 580:Drivers/STM32G4xx_HAL_Driver/Src/stm32g4xx_hal_rcc_ex.c ****   /* Get the USART3 clock source ---------------------------------------------*/
 581:Drivers/STM32G4xx_HAL_Driver/Src/stm32g4xx_hal_rcc_ex.c ****   PeriphClkInit->Usart3ClockSelection  = __HAL_RCC_GET_USART3_SOURCE();
 668              		.loc 1 581 3 is_stmt 1 view .LVU212
 669              		.loc 1 581 42 is_stmt 0 view .LVU213
 670 001a D3F88820 		ldr	r2, [r3, #136]
 671 001e 02F03002 		and	r2, r2, #48
 672              		.loc 1 581 40 view .LVU214
 673 0022 C260     		str	r2, [r0, #12]
 582:Drivers/STM32G4xx_HAL_Driver/Src/stm32g4xx_hal_rcc_ex.c **** #endif /* USART3 */
 583:Drivers/STM32G4xx_HAL_Driver/Src/stm32g4xx_hal_rcc_ex.c **** 
 584:Drivers/STM32G4xx_HAL_Driver/Src/stm32g4xx_hal_rcc_ex.c **** #if defined(UART4)
 585:Drivers/STM32G4xx_HAL_Driver/Src/stm32g4xx_hal_rcc_ex.c ****   /* Get the UART4 clock source ----------------------------------------------*/
 586:Drivers/STM32G4xx_HAL_Driver/Src/stm32g4xx_hal_rcc_ex.c ****   PeriphClkInit->Uart4ClockSelection   = __HAL_RCC_GET_UART4_SOURCE();
 674              		.loc 1 586 3 is_stmt 1 view .LVU215
 675              		.loc 1 586 42 is_stmt 0 view .LVU216
 676 0024 D3F88820 		ldr	r2, [r3, #136]
 677 0028 02F0C002 		and	r2, r2, #192
 678              		.loc 1 586 40 view .LVU217
 679 002c 0261     		str	r2, [r0, #16]
 587:Drivers/STM32G4xx_HAL_Driver/Src/stm32g4xx_hal_rcc_ex.c **** #endif /* UART4 */
 588:Drivers/STM32G4xx_HAL_Driver/Src/stm32g4xx_hal_rcc_ex.c **** 
 589:Drivers/STM32G4xx_HAL_Driver/Src/stm32g4xx_hal_rcc_ex.c **** #if defined(UART5)
 590:Drivers/STM32G4xx_HAL_Driver/Src/stm32g4xx_hal_rcc_ex.c ****   /* Get the UART5 clock source ----------------------------------------------*/
 591:Drivers/STM32G4xx_HAL_Driver/Src/stm32g4xx_hal_rcc_ex.c ****   PeriphClkInit->Uart5ClockSelection   = __HAL_RCC_GET_UART5_SOURCE();
 680              		.loc 1 591 3 is_stmt 1 view .LVU218
 681              		.loc 1 591 42 is_stmt 0 view .LVU219
 682 002e D3F88820 		ldr	r2, [r3, #136]
 683 0032 02F44072 		and	r2, r2, #768
 684              		.loc 1 591 40 view .LVU220
 685 0036 4261     		str	r2, [r0, #20]
 592:Drivers/STM32G4xx_HAL_Driver/Src/stm32g4xx_hal_rcc_ex.c **** #endif /* UART5 */
 593:Drivers/STM32G4xx_HAL_Driver/Src/stm32g4xx_hal_rcc_ex.c ****   
 594:Drivers/STM32G4xx_HAL_Driver/Src/stm32g4xx_hal_rcc_ex.c ****   /* Get the LPUART1 clock source --------------------------------------------*/
 595:Drivers/STM32G4xx_HAL_Driver/Src/stm32g4xx_hal_rcc_ex.c ****   PeriphClkInit->Lpuart1ClockSelection = __HAL_RCC_GET_LPUART1_SOURCE();
 686              		.loc 1 595 3 is_stmt 1 view .LVU221
 687              		.loc 1 595 42 is_stmt 0 view .LVU222
 688 0038 D3F88820 		ldr	r2, [r3, #136]
 689 003c 02F44062 		and	r2, r2, #3072
 690              		.loc 1 595 40 view .LVU223
 691 0040 8261     		str	r2, [r0, #24]
 596:Drivers/STM32G4xx_HAL_Driver/Src/stm32g4xx_hal_rcc_ex.c **** 
 597:Drivers/STM32G4xx_HAL_Driver/Src/stm32g4xx_hal_rcc_ex.c ****   /* Get the I2C1 clock source -----------------------------------------------*/
ARM GAS  C:\Users\aniru.000\AppData\Local\Temp\ccGZAzIF.s 			page 24


 598:Drivers/STM32G4xx_HAL_Driver/Src/stm32g4xx_hal_rcc_ex.c ****   PeriphClkInit->I2c1ClockSelection    = __HAL_RCC_GET_I2C1_SOURCE();
 692              		.loc 1 598 3 is_stmt 1 view .LVU224
 693              		.loc 1 598 42 is_stmt 0 view .LVU225
 694 0042 D3F88820 		ldr	r2, [r3, #136]
 695 0046 02F44052 		and	r2, r2, #12288
 696              		.loc 1 598 40 view .LVU226
 697 004a C261     		str	r2, [r0, #28]
 599:Drivers/STM32G4xx_HAL_Driver/Src/stm32g4xx_hal_rcc_ex.c **** 
 600:Drivers/STM32G4xx_HAL_Driver/Src/stm32g4xx_hal_rcc_ex.c ****   /* Get the I2C2 clock source ----------------------------------------------*/
 601:Drivers/STM32G4xx_HAL_Driver/Src/stm32g4xx_hal_rcc_ex.c ****   PeriphClkInit->I2c2ClockSelection    = __HAL_RCC_GET_I2C2_SOURCE();
 698              		.loc 1 601 3 is_stmt 1 view .LVU227
 699              		.loc 1 601 42 is_stmt 0 view .LVU228
 700 004c D3F88820 		ldr	r2, [r3, #136]
 701 0050 02F44042 		and	r2, r2, #49152
 702              		.loc 1 601 40 view .LVU229
 703 0054 0262     		str	r2, [r0, #32]
 602:Drivers/STM32G4xx_HAL_Driver/Src/stm32g4xx_hal_rcc_ex.c **** 
 603:Drivers/STM32G4xx_HAL_Driver/Src/stm32g4xx_hal_rcc_ex.c **** #if defined(I2C3)
 604:Drivers/STM32G4xx_HAL_Driver/Src/stm32g4xx_hal_rcc_ex.c ****   /* Get the I2C3 clock source -----------------------------------------------*/
 605:Drivers/STM32G4xx_HAL_Driver/Src/stm32g4xx_hal_rcc_ex.c ****   PeriphClkInit->I2c3ClockSelection    = __HAL_RCC_GET_I2C3_SOURCE();
 704              		.loc 1 605 3 is_stmt 1 view .LVU230
 705              		.loc 1 605 42 is_stmt 0 view .LVU231
 706 0056 D3F88820 		ldr	r2, [r3, #136]
 707 005a 02F44032 		and	r2, r2, #196608
 708              		.loc 1 605 40 view .LVU232
 709 005e 4262     		str	r2, [r0, #36]
 606:Drivers/STM32G4xx_HAL_Driver/Src/stm32g4xx_hal_rcc_ex.c **** #endif /* I2C3 */
 607:Drivers/STM32G4xx_HAL_Driver/Src/stm32g4xx_hal_rcc_ex.c **** 
 608:Drivers/STM32G4xx_HAL_Driver/Src/stm32g4xx_hal_rcc_ex.c **** #if defined(I2C4)
 609:Drivers/STM32G4xx_HAL_Driver/Src/stm32g4xx_hal_rcc_ex.c ****   /* Get the I2C4 clock source -----------------------------------------------*/
 610:Drivers/STM32G4xx_HAL_Driver/Src/stm32g4xx_hal_rcc_ex.c ****   PeriphClkInit->I2c4ClockSelection    = __HAL_RCC_GET_I2C4_SOURCE();
 611:Drivers/STM32G4xx_HAL_Driver/Src/stm32g4xx_hal_rcc_ex.c **** #endif /* I2C4 */
 612:Drivers/STM32G4xx_HAL_Driver/Src/stm32g4xx_hal_rcc_ex.c **** 
 613:Drivers/STM32G4xx_HAL_Driver/Src/stm32g4xx_hal_rcc_ex.c ****   /* Get the LPTIM1 clock source ---------------------------------------------*/
 614:Drivers/STM32G4xx_HAL_Driver/Src/stm32g4xx_hal_rcc_ex.c ****   PeriphClkInit->Lptim1ClockSelection  = __HAL_RCC_GET_LPTIM1_SOURCE();
 710              		.loc 1 614 3 is_stmt 1 view .LVU233
 711              		.loc 1 614 42 is_stmt 0 view .LVU234
 712 0060 D3F88820 		ldr	r2, [r3, #136]
 713 0064 02F44022 		and	r2, r2, #786432
 714              		.loc 1 614 40 view .LVU235
 715 0068 8262     		str	r2, [r0, #40]
 615:Drivers/STM32G4xx_HAL_Driver/Src/stm32g4xx_hal_rcc_ex.c **** 
 616:Drivers/STM32G4xx_HAL_Driver/Src/stm32g4xx_hal_rcc_ex.c **** #if defined(SAI1)
 617:Drivers/STM32G4xx_HAL_Driver/Src/stm32g4xx_hal_rcc_ex.c ****   /* Get the SAI1 clock source -----------------------------------------------*/
 618:Drivers/STM32G4xx_HAL_Driver/Src/stm32g4xx_hal_rcc_ex.c ****   PeriphClkInit->Sai1ClockSelection    = __HAL_RCC_GET_SAI1_SOURCE();
 716              		.loc 1 618 3 is_stmt 1 view .LVU236
 717              		.loc 1 618 42 is_stmt 0 view .LVU237
 718 006a D3F88820 		ldr	r2, [r3, #136]
 719 006e 02F44012 		and	r2, r2, #3145728
 720              		.loc 1 618 40 view .LVU238
 721 0072 C262     		str	r2, [r0, #44]
 619:Drivers/STM32G4xx_HAL_Driver/Src/stm32g4xx_hal_rcc_ex.c **** #endif /* SAI1 */
 620:Drivers/STM32G4xx_HAL_Driver/Src/stm32g4xx_hal_rcc_ex.c **** 
 621:Drivers/STM32G4xx_HAL_Driver/Src/stm32g4xx_hal_rcc_ex.c **** #if defined(SPI_I2S_SUPPORT)
 622:Drivers/STM32G4xx_HAL_Driver/Src/stm32g4xx_hal_rcc_ex.c ****   /* Get the I2S clock source -----------------------------------------------*/
 623:Drivers/STM32G4xx_HAL_Driver/Src/stm32g4xx_hal_rcc_ex.c ****   PeriphClkInit->I2sClockSelection    = __HAL_RCC_GET_I2S_SOURCE();
 722              		.loc 1 623 3 is_stmt 1 view .LVU239
ARM GAS  C:\Users\aniru.000\AppData\Local\Temp\ccGZAzIF.s 			page 25


 723              		.loc 1 623 41 is_stmt 0 view .LVU240
 724 0074 D3F88820 		ldr	r2, [r3, #136]
 725 0078 02F44002 		and	r2, r2, #12582912
 726              		.loc 1 623 39 view .LVU241
 727 007c 0263     		str	r2, [r0, #48]
 624:Drivers/STM32G4xx_HAL_Driver/Src/stm32g4xx_hal_rcc_ex.c **** #endif /* SPI_I2S_SUPPORT */
 625:Drivers/STM32G4xx_HAL_Driver/Src/stm32g4xx_hal_rcc_ex.c **** 
 626:Drivers/STM32G4xx_HAL_Driver/Src/stm32g4xx_hal_rcc_ex.c **** #if defined(FDCAN1)
 627:Drivers/STM32G4xx_HAL_Driver/Src/stm32g4xx_hal_rcc_ex.c ****   /* Get the FDCAN clock source -----------------------------------------------*/
 628:Drivers/STM32G4xx_HAL_Driver/Src/stm32g4xx_hal_rcc_ex.c ****   PeriphClkInit->FdcanClockSelection    = __HAL_RCC_GET_FDCAN_SOURCE();
 728              		.loc 1 628 3 is_stmt 1 view .LVU242
 729              		.loc 1 628 43 is_stmt 0 view .LVU243
 730 007e D3F88820 		ldr	r2, [r3, #136]
 731 0082 02F04072 		and	r2, r2, #50331648
 732              		.loc 1 628 41 view .LVU244
 733 0086 4263     		str	r2, [r0, #52]
 629:Drivers/STM32G4xx_HAL_Driver/Src/stm32g4xx_hal_rcc_ex.c **** #endif /* FDCAN1 */
 630:Drivers/STM32G4xx_HAL_Driver/Src/stm32g4xx_hal_rcc_ex.c **** 
 631:Drivers/STM32G4xx_HAL_Driver/Src/stm32g4xx_hal_rcc_ex.c **** #if defined(USB)
 632:Drivers/STM32G4xx_HAL_Driver/Src/stm32g4xx_hal_rcc_ex.c ****   /* Get the USB clock source ------------------------------------------------*/
 633:Drivers/STM32G4xx_HAL_Driver/Src/stm32g4xx_hal_rcc_ex.c ****   PeriphClkInit->UsbClockSelection   = __HAL_RCC_GET_USB_SOURCE();
 734              		.loc 1 633 3 is_stmt 1 view .LVU245
 735              		.loc 1 633 40 is_stmt 0 view .LVU246
 736 0088 D3F88820 		ldr	r2, [r3, #136]
 737 008c 02F04062 		and	r2, r2, #201326592
 738              		.loc 1 633 38 view .LVU247
 739 0090 8263     		str	r2, [r0, #56]
 634:Drivers/STM32G4xx_HAL_Driver/Src/stm32g4xx_hal_rcc_ex.c **** #endif /* USB */
 635:Drivers/STM32G4xx_HAL_Driver/Src/stm32g4xx_hal_rcc_ex.c **** 
 636:Drivers/STM32G4xx_HAL_Driver/Src/stm32g4xx_hal_rcc_ex.c ****   /* Get the RNG clock source ------------------------------------------------*/
 637:Drivers/STM32G4xx_HAL_Driver/Src/stm32g4xx_hal_rcc_ex.c ****   PeriphClkInit->RngClockSelection   = __HAL_RCC_GET_RNG_SOURCE();
 740              		.loc 1 637 3 is_stmt 1 view .LVU248
 741              		.loc 1 637 40 is_stmt 0 view .LVU249
 742 0092 D3F88820 		ldr	r2, [r3, #136]
 743 0096 02F04062 		and	r2, r2, #201326592
 744              		.loc 1 637 38 view .LVU250
 745 009a C263     		str	r2, [r0, #60]
 638:Drivers/STM32G4xx_HAL_Driver/Src/stm32g4xx_hal_rcc_ex.c **** 
 639:Drivers/STM32G4xx_HAL_Driver/Src/stm32g4xx_hal_rcc_ex.c ****   /* Get the ADC12 clock source -----------------------------------------------*/
 640:Drivers/STM32G4xx_HAL_Driver/Src/stm32g4xx_hal_rcc_ex.c ****   PeriphClkInit->Adc12ClockSelection     = __HAL_RCC_GET_ADC12_SOURCE();
 746              		.loc 1 640 3 is_stmt 1 view .LVU251
 747              		.loc 1 640 44 is_stmt 0 view .LVU252
 748 009c D3F88820 		ldr	r2, [r3, #136]
 749 00a0 02F04052 		and	r2, r2, #805306368
 750              		.loc 1 640 42 view .LVU253
 751 00a4 0264     		str	r2, [r0, #64]
 641:Drivers/STM32G4xx_HAL_Driver/Src/stm32g4xx_hal_rcc_ex.c **** 
 642:Drivers/STM32G4xx_HAL_Driver/Src/stm32g4xx_hal_rcc_ex.c **** #if defined(ADC345_COMMON)
 643:Drivers/STM32G4xx_HAL_Driver/Src/stm32g4xx_hal_rcc_ex.c ****   /* Get the ADC345 clock source ----------------------------------------------*/
 644:Drivers/STM32G4xx_HAL_Driver/Src/stm32g4xx_hal_rcc_ex.c ****   PeriphClkInit->Adc345ClockSelection     = __HAL_RCC_GET_ADC345_SOURCE();
 752              		.loc 1 644 3 is_stmt 1 view .LVU254
 753              		.loc 1 644 45 is_stmt 0 view .LVU255
 754 00a6 D3F88820 		ldr	r2, [r3, #136]
 755 00aa 02F04042 		and	r2, r2, #-1073741824
 756              		.loc 1 644 43 view .LVU256
 757 00ae 4264     		str	r2, [r0, #68]
 645:Drivers/STM32G4xx_HAL_Driver/Src/stm32g4xx_hal_rcc_ex.c **** #endif /* ADC345_COMMON */
ARM GAS  C:\Users\aniru.000\AppData\Local\Temp\ccGZAzIF.s 			page 26


 646:Drivers/STM32G4xx_HAL_Driver/Src/stm32g4xx_hal_rcc_ex.c **** 
 647:Drivers/STM32G4xx_HAL_Driver/Src/stm32g4xx_hal_rcc_ex.c **** #if defined(QUADSPI)
 648:Drivers/STM32G4xx_HAL_Driver/Src/stm32g4xx_hal_rcc_ex.c ****   /* Get the QuadSPIclock source --------------------------------------------*/
 649:Drivers/STM32G4xx_HAL_Driver/Src/stm32g4xx_hal_rcc_ex.c ****   PeriphClkInit->QspiClockSelection = __HAL_RCC_GET_QSPI_SOURCE();
 758              		.loc 1 649 3 is_stmt 1 view .LVU257
 759              		.loc 1 649 39 is_stmt 0 view .LVU258
 760 00b0 D3F89C20 		ldr	r2, [r3, #156]
 761 00b4 02F44012 		and	r2, r2, #3145728
 762              		.loc 1 649 37 view .LVU259
 763 00b8 8264     		str	r2, [r0, #72]
 650:Drivers/STM32G4xx_HAL_Driver/Src/stm32g4xx_hal_rcc_ex.c **** #endif /* QUADSPI */
 651:Drivers/STM32G4xx_HAL_Driver/Src/stm32g4xx_hal_rcc_ex.c **** 
 652:Drivers/STM32G4xx_HAL_Driver/Src/stm32g4xx_hal_rcc_ex.c ****   /* Get the RTC clock source ------------------------------------------------*/
 653:Drivers/STM32G4xx_HAL_Driver/Src/stm32g4xx_hal_rcc_ex.c ****   PeriphClkInit->RTCClockSelection     = __HAL_RCC_GET_RTC_SOURCE();
 764              		.loc 1 653 3 is_stmt 1 view .LVU260
 765              		.loc 1 653 42 is_stmt 0 view .LVU261
 766 00ba D3F89030 		ldr	r3, [r3, #144]
 767 00be 03F44073 		and	r3, r3, #768
 768              		.loc 1 653 40 view .LVU262
 769 00c2 C364     		str	r3, [r0, #76]
 654:Drivers/STM32G4xx_HAL_Driver/Src/stm32g4xx_hal_rcc_ex.c **** 
 655:Drivers/STM32G4xx_HAL_Driver/Src/stm32g4xx_hal_rcc_ex.c **** }
 770              		.loc 1 655 1 view .LVU263
 771 00c4 7047     		bx	lr
 772              	.L51:
 773 00c6 00BF     		.align	2
 774              	.L50:
 775 00c8 FFFF0D00 		.word	917503
 776 00cc 00100240 		.word	1073876992
 777              		.cfi_endproc
 778              	.LFE133:
 780              		.section	.text.HAL_RCCEx_GetPeriphCLKFreq,"ax",%progbits
 781              		.align	1
 782              		.global	HAL_RCCEx_GetPeriphCLKFreq
 783              		.syntax unified
 784              		.thumb
 785              		.thumb_func
 787              	HAL_RCCEx_GetPeriphCLKFreq:
 788              	.LVL27:
 789              	.LFB134:
 656:Drivers/STM32G4xx_HAL_Driver/Src/stm32g4xx_hal_rcc_ex.c **** 
 657:Drivers/STM32G4xx_HAL_Driver/Src/stm32g4xx_hal_rcc_ex.c **** /**
 658:Drivers/STM32G4xx_HAL_Driver/Src/stm32g4xx_hal_rcc_ex.c ****   * @brief  Return the peripheral clock frequency for peripherals with clock source from PLL
 659:Drivers/STM32G4xx_HAL_Driver/Src/stm32g4xx_hal_rcc_ex.c ****   * @note   Return 0 if peripheral clock identifier not managed by this API
 660:Drivers/STM32G4xx_HAL_Driver/Src/stm32g4xx_hal_rcc_ex.c ****   * @param  PeriphClk  Peripheral clock identifier
 661:Drivers/STM32G4xx_HAL_Driver/Src/stm32g4xx_hal_rcc_ex.c ****   *         This parameter can be one of the following values:
 662:Drivers/STM32G4xx_HAL_Driver/Src/stm32g4xx_hal_rcc_ex.c ****   *            @arg @ref RCC_PERIPHCLK_USART1  USART1 peripheral clock
 663:Drivers/STM32G4xx_HAL_Driver/Src/stm32g4xx_hal_rcc_ex.c ****   *            @arg @ref RCC_PERIPHCLK_USART2  USART2 peripheral clock
 664:Drivers/STM32G4xx_HAL_Driver/Src/stm32g4xx_hal_rcc_ex.c ****   *            @arg @ref RCC_PERIPHCLK_USART3  USART3 peripheral clock
 665:Drivers/STM32G4xx_HAL_Driver/Src/stm32g4xx_hal_rcc_ex.c ****   *            @arg @ref RCC_PERIPHCLK_UART4  UART4 peripheral clock (only for devices with UART4)
 666:Drivers/STM32G4xx_HAL_Driver/Src/stm32g4xx_hal_rcc_ex.c ****   *            @arg @ref RCC_PERIPHCLK_UART5  UART5 peripheral clock (only for devices with UART5)
 667:Drivers/STM32G4xx_HAL_Driver/Src/stm32g4xx_hal_rcc_ex.c ****   *            @arg @ref RCC_PERIPHCLK_LPUART1  LPUART1 peripheral clock
 668:Drivers/STM32G4xx_HAL_Driver/Src/stm32g4xx_hal_rcc_ex.c ****   *            @arg @ref RCC_PERIPHCLK_I2C1  I2C1 peripheral clock
 669:Drivers/STM32G4xx_HAL_Driver/Src/stm32g4xx_hal_rcc_ex.c ****   *            @arg @ref RCC_PERIPHCLK_I2C2  I2C2 peripheral clock
 670:Drivers/STM32G4xx_HAL_Driver/Src/stm32g4xx_hal_rcc_ex.c ****   *            @arg @ref RCC_PERIPHCLK_I2C3  I2C3 peripheral clock
 671:Drivers/STM32G4xx_HAL_Driver/Src/stm32g4xx_hal_rcc_ex.c ****   *            @arg @ref RCC_PERIPHCLK_I2C4  I2C4 peripheral clock (only for devices with I2C4)
 672:Drivers/STM32G4xx_HAL_Driver/Src/stm32g4xx_hal_rcc_ex.c ****   *            @arg @ref RCC_PERIPHCLK_LPTIM1  LPTIM1 peripheral clock
ARM GAS  C:\Users\aniru.000\AppData\Local\Temp\ccGZAzIF.s 			page 27


 673:Drivers/STM32G4xx_HAL_Driver/Src/stm32g4xx_hal_rcc_ex.c ****   *            @arg @ref RCC_PERIPHCLK_SAI1  SAI1 peripheral clock
 674:Drivers/STM32G4xx_HAL_Driver/Src/stm32g4xx_hal_rcc_ex.c ****   *            @arg @ref RCC_PERIPHCLK_I2S  SPI peripheral clock
 675:Drivers/STM32G4xx_HAL_Driver/Src/stm32g4xx_hal_rcc_ex.c ****   *            @arg @ref RCC_PERIPHCLK_FDCAN  FDCAN peripheral clock (only for devices with FDCAN)
 676:Drivers/STM32G4xx_HAL_Driver/Src/stm32g4xx_hal_rcc_ex.c ****   *            @arg @ref RCC_PERIPHCLK_RNG  RNG peripheral clock
 677:Drivers/STM32G4xx_HAL_Driver/Src/stm32g4xx_hal_rcc_ex.c ****   *            @arg @ref RCC_PERIPHCLK_USB  USB peripheral clock (only for devices with USB)
 678:Drivers/STM32G4xx_HAL_Driver/Src/stm32g4xx_hal_rcc_ex.c ****   *            @arg @ref RCC_PERIPHCLK_ADC12  ADC1 and ADC2 peripheral clock
 679:Drivers/STM32G4xx_HAL_Driver/Src/stm32g4xx_hal_rcc_ex.c ****   *            @arg @ref RCC_PERIPHCLK_ADC345  ADC3, ADC4 and ADC5 peripheral clock (only for devic
 680:Drivers/STM32G4xx_HAL_Driver/Src/stm32g4xx_hal_rcc_ex.c ****   *            @arg @ref RCC_PERIPHCLK_QSPI  QSPI peripheral clock (only for devices with QSPI)
 681:Drivers/STM32G4xx_HAL_Driver/Src/stm32g4xx_hal_rcc_ex.c ****   *            @arg @ref RCC_PERIPHCLK_RTC  RTC peripheral clock
 682:Drivers/STM32G4xx_HAL_Driver/Src/stm32g4xx_hal_rcc_ex.c ****   * @retval Frequency in Hz
 683:Drivers/STM32G4xx_HAL_Driver/Src/stm32g4xx_hal_rcc_ex.c ****   */
 684:Drivers/STM32G4xx_HAL_Driver/Src/stm32g4xx_hal_rcc_ex.c **** uint32_t HAL_RCCEx_GetPeriphCLKFreq(uint32_t PeriphClk)
 685:Drivers/STM32G4xx_HAL_Driver/Src/stm32g4xx_hal_rcc_ex.c **** {
 790              		.loc 1 685 1 is_stmt 1 view -0
 791              		.cfi_startproc
 792              		@ args = 0, pretend = 0, frame = 0
 793              		@ frame_needed = 0, uses_anonymous_args = 0
 794              		.loc 1 685 1 is_stmt 0 view .LVU265
 795 0000 08B5     		push	{r3, lr}
 796              		.cfi_def_cfa_offset 8
 797              		.cfi_offset 3, -8
 798              		.cfi_offset 14, -4
 686:Drivers/STM32G4xx_HAL_Driver/Src/stm32g4xx_hal_rcc_ex.c ****   uint32_t frequency = 0U;
 799              		.loc 1 686 3 is_stmt 1 view .LVU266
 800              	.LVL28:
 687:Drivers/STM32G4xx_HAL_Driver/Src/stm32g4xx_hal_rcc_ex.c ****   uint32_t srcclk;
 801              		.loc 1 687 3 view .LVU267
 688:Drivers/STM32G4xx_HAL_Driver/Src/stm32g4xx_hal_rcc_ex.c ****   uint32_t pllvco, plln, pllp;
 802              		.loc 1 688 3 view .LVU268
 689:Drivers/STM32G4xx_HAL_Driver/Src/stm32g4xx_hal_rcc_ex.c **** 
 690:Drivers/STM32G4xx_HAL_Driver/Src/stm32g4xx_hal_rcc_ex.c ****   /* Check the parameters */
 691:Drivers/STM32G4xx_HAL_Driver/Src/stm32g4xx_hal_rcc_ex.c ****   assert_param(IS_RCC_PERIPHCLOCK(PeriphClk));
 803              		.loc 1 691 3 view .LVU269
 692:Drivers/STM32G4xx_HAL_Driver/Src/stm32g4xx_hal_rcc_ex.c **** 
 693:Drivers/STM32G4xx_HAL_Driver/Src/stm32g4xx_hal_rcc_ex.c ****   if(PeriphClk == RCC_PERIPHCLK_RTC)
 804              		.loc 1 693 3 view .LVU270
 805              		.loc 1 693 5 is_stmt 0 view .LVU271
 806 0002 B0F5002F 		cmp	r0, #524288
 807 0006 43D0     		beq	.L159
 694:Drivers/STM32G4xx_HAL_Driver/Src/stm32g4xx_hal_rcc_ex.c ****   {
 695:Drivers/STM32G4xx_HAL_Driver/Src/stm32g4xx_hal_rcc_ex.c ****     /* Get the current RTC source */
 696:Drivers/STM32G4xx_HAL_Driver/Src/stm32g4xx_hal_rcc_ex.c ****     srcclk = __HAL_RCC_GET_RTC_SOURCE();
 697:Drivers/STM32G4xx_HAL_Driver/Src/stm32g4xx_hal_rcc_ex.c **** 
 698:Drivers/STM32G4xx_HAL_Driver/Src/stm32g4xx_hal_rcc_ex.c ****     /* Check if LSE is ready and if RTC clock selection is LSE */
 699:Drivers/STM32G4xx_HAL_Driver/Src/stm32g4xx_hal_rcc_ex.c ****     if ((HAL_IS_BIT_SET(RCC->BDCR, RCC_BDCR_LSERDY)) && (srcclk == RCC_RTCCLKSOURCE_LSE))
 700:Drivers/STM32G4xx_HAL_Driver/Src/stm32g4xx_hal_rcc_ex.c ****     {
 701:Drivers/STM32G4xx_HAL_Driver/Src/stm32g4xx_hal_rcc_ex.c ****       frequency = LSE_VALUE;
 702:Drivers/STM32G4xx_HAL_Driver/Src/stm32g4xx_hal_rcc_ex.c ****     }
 703:Drivers/STM32G4xx_HAL_Driver/Src/stm32g4xx_hal_rcc_ex.c ****     /* Check if LSI is ready and if RTC clock selection is LSI */
 704:Drivers/STM32G4xx_HAL_Driver/Src/stm32g4xx_hal_rcc_ex.c ****     else if ((HAL_IS_BIT_SET(RCC->CSR, RCC_CSR_LSIRDY)) && (srcclk == RCC_RTCCLKSOURCE_LSI))
 705:Drivers/STM32G4xx_HAL_Driver/Src/stm32g4xx_hal_rcc_ex.c ****     {
 706:Drivers/STM32G4xx_HAL_Driver/Src/stm32g4xx_hal_rcc_ex.c ****       frequency = LSI_VALUE;
 707:Drivers/STM32G4xx_HAL_Driver/Src/stm32g4xx_hal_rcc_ex.c ****     }
 708:Drivers/STM32G4xx_HAL_Driver/Src/stm32g4xx_hal_rcc_ex.c ****     /* Check if HSE is ready  and if RTC clock selection is HSI_DIV32*/
 709:Drivers/STM32G4xx_HAL_Driver/Src/stm32g4xx_hal_rcc_ex.c ****     else if ((HAL_IS_BIT_SET(RCC->CR, RCC_CR_HSERDY)) && (srcclk == RCC_RTCCLKSOURCE_HSE_DIV32))
 710:Drivers/STM32G4xx_HAL_Driver/Src/stm32g4xx_hal_rcc_ex.c ****     {
 711:Drivers/STM32G4xx_HAL_Driver/Src/stm32g4xx_hal_rcc_ex.c ****       frequency = HSE_VALUE / 32U;
ARM GAS  C:\Users\aniru.000\AppData\Local\Temp\ccGZAzIF.s 			page 28


 712:Drivers/STM32G4xx_HAL_Driver/Src/stm32g4xx_hal_rcc_ex.c ****     }
 713:Drivers/STM32G4xx_HAL_Driver/Src/stm32g4xx_hal_rcc_ex.c ****     /* Clock not enabled for RTC*/
 714:Drivers/STM32G4xx_HAL_Driver/Src/stm32g4xx_hal_rcc_ex.c ****     else
 715:Drivers/STM32G4xx_HAL_Driver/Src/stm32g4xx_hal_rcc_ex.c ****     {
 716:Drivers/STM32G4xx_HAL_Driver/Src/stm32g4xx_hal_rcc_ex.c ****       /* nothing to do: frequency already initialized to 0 */
 717:Drivers/STM32G4xx_HAL_Driver/Src/stm32g4xx_hal_rcc_ex.c ****     }
 718:Drivers/STM32G4xx_HAL_Driver/Src/stm32g4xx_hal_rcc_ex.c ****   }
 719:Drivers/STM32G4xx_HAL_Driver/Src/stm32g4xx_hal_rcc_ex.c ****   else
 720:Drivers/STM32G4xx_HAL_Driver/Src/stm32g4xx_hal_rcc_ex.c ****   {
 721:Drivers/STM32G4xx_HAL_Driver/Src/stm32g4xx_hal_rcc_ex.c ****     /* Other external peripheral clock source than RTC */
 722:Drivers/STM32G4xx_HAL_Driver/Src/stm32g4xx_hal_rcc_ex.c **** 
 723:Drivers/STM32G4xx_HAL_Driver/Src/stm32g4xx_hal_rcc_ex.c ****     /* Compute PLL clock input */
 724:Drivers/STM32G4xx_HAL_Driver/Src/stm32g4xx_hal_rcc_ex.c ****     if(__HAL_RCC_GET_PLL_OSCSOURCE() == RCC_PLLSOURCE_HSI)   /* HSI ? */
 808              		.loc 1 724 5 is_stmt 1 view .LVU272
 809              		.loc 1 724 8 is_stmt 0 view .LVU273
 810 0008 AE4B     		ldr	r3, .L202
 811 000a DB68     		ldr	r3, [r3, #12]
 812 000c 03F00303 		and	r3, r3, #3
 813              		.loc 1 724 7 view .LVU274
 814 0010 022B     		cmp	r3, #2
 815 0012 60D0     		beq	.L160
 725:Drivers/STM32G4xx_HAL_Driver/Src/stm32g4xx_hal_rcc_ex.c ****     {
 726:Drivers/STM32G4xx_HAL_Driver/Src/stm32g4xx_hal_rcc_ex.c ****       if(HAL_IS_BIT_SET(RCC->CR, RCC_CR_HSIRDY))
 727:Drivers/STM32G4xx_HAL_Driver/Src/stm32g4xx_hal_rcc_ex.c ****       {
 728:Drivers/STM32G4xx_HAL_Driver/Src/stm32g4xx_hal_rcc_ex.c ****         pllvco = HSI_VALUE;
 729:Drivers/STM32G4xx_HAL_Driver/Src/stm32g4xx_hal_rcc_ex.c ****       }
 730:Drivers/STM32G4xx_HAL_Driver/Src/stm32g4xx_hal_rcc_ex.c ****       else
 731:Drivers/STM32G4xx_HAL_Driver/Src/stm32g4xx_hal_rcc_ex.c ****       {
 732:Drivers/STM32G4xx_HAL_Driver/Src/stm32g4xx_hal_rcc_ex.c ****         pllvco = 0U;
 733:Drivers/STM32G4xx_HAL_Driver/Src/stm32g4xx_hal_rcc_ex.c ****       }
 734:Drivers/STM32G4xx_HAL_Driver/Src/stm32g4xx_hal_rcc_ex.c ****     }
 735:Drivers/STM32G4xx_HAL_Driver/Src/stm32g4xx_hal_rcc_ex.c ****     else if(__HAL_RCC_GET_PLL_OSCSOURCE() == RCC_PLLSOURCE_HSE)   /* HSE ? */
 816              		.loc 1 735 10 is_stmt 1 view .LVU275
 817              		.loc 1 735 13 is_stmt 0 view .LVU276
 818 0014 AB4B     		ldr	r3, .L202
 819 0016 DB68     		ldr	r3, [r3, #12]
 820 0018 03F00303 		and	r3, r3, #3
 821              		.loc 1 735 12 view .LVU277
 822 001c 032B     		cmp	r3, #3
 823 001e 61D0     		beq	.L161
 736:Drivers/STM32G4xx_HAL_Driver/Src/stm32g4xx_hal_rcc_ex.c ****     {
 737:Drivers/STM32G4xx_HAL_Driver/Src/stm32g4xx_hal_rcc_ex.c ****       if(HAL_IS_BIT_SET(RCC->CR, RCC_CR_HSERDY))
 738:Drivers/STM32G4xx_HAL_Driver/Src/stm32g4xx_hal_rcc_ex.c ****       {
 739:Drivers/STM32G4xx_HAL_Driver/Src/stm32g4xx_hal_rcc_ex.c ****         pllvco = HSE_VALUE;
 740:Drivers/STM32G4xx_HAL_Driver/Src/stm32g4xx_hal_rcc_ex.c ****       }
 741:Drivers/STM32G4xx_HAL_Driver/Src/stm32g4xx_hal_rcc_ex.c ****       else
 742:Drivers/STM32G4xx_HAL_Driver/Src/stm32g4xx_hal_rcc_ex.c ****       {
 743:Drivers/STM32G4xx_HAL_Driver/Src/stm32g4xx_hal_rcc_ex.c ****         pllvco = 0U;
 744:Drivers/STM32G4xx_HAL_Driver/Src/stm32g4xx_hal_rcc_ex.c ****       }
 745:Drivers/STM32G4xx_HAL_Driver/Src/stm32g4xx_hal_rcc_ex.c ****     }
 746:Drivers/STM32G4xx_HAL_Driver/Src/stm32g4xx_hal_rcc_ex.c ****     else /* No source */
 747:Drivers/STM32G4xx_HAL_Driver/Src/stm32g4xx_hal_rcc_ex.c ****     {
 748:Drivers/STM32G4xx_HAL_Driver/Src/stm32g4xx_hal_rcc_ex.c ****       pllvco = 0U;
 824              		.loc 1 748 14 view .LVU278
 825 0020 0022     		movs	r2, #0
 826              	.L58:
 827              	.LVL29:
ARM GAS  C:\Users\aniru.000\AppData\Local\Temp\ccGZAzIF.s 			page 29


 749:Drivers/STM32G4xx_HAL_Driver/Src/stm32g4xx_hal_rcc_ex.c ****     }
 750:Drivers/STM32G4xx_HAL_Driver/Src/stm32g4xx_hal_rcc_ex.c **** 
 751:Drivers/STM32G4xx_HAL_Driver/Src/stm32g4xx_hal_rcc_ex.c ****     /* f(PLL Source) / PLLM */
 752:Drivers/STM32G4xx_HAL_Driver/Src/stm32g4xx_hal_rcc_ex.c ****     pllvco = (pllvco / ((READ_BIT(RCC->PLLCFGR, RCC_PLLCFGR_PLLM) >> RCC_PLLCFGR_PLLM_Pos) + 1U));
 828              		.loc 1 752 5 is_stmt 1 view .LVU279
 829              		.loc 1 752 26 is_stmt 0 view .LVU280
 830 0022 A84B     		ldr	r3, .L202
 831 0024 DB68     		ldr	r3, [r3, #12]
 832              		.loc 1 752 67 view .LVU281
 833 0026 C3F30313 		ubfx	r3, r3, #4, #4
 834              		.loc 1 752 92 view .LVU282
 835 002a 0133     		adds	r3, r3, #1
 836              		.loc 1 752 12 view .LVU283
 837 002c B2FBF3F2 		udiv	r2, r2, r3
 838              	.LVL30:
 753:Drivers/STM32G4xx_HAL_Driver/Src/stm32g4xx_hal_rcc_ex.c **** 
 754:Drivers/STM32G4xx_HAL_Driver/Src/stm32g4xx_hal_rcc_ex.c ****     switch(PeriphClk)
 839              		.loc 1 754 5 is_stmt 1 view .LVU284
 840 0030 B0F5007F 		cmp	r0, #512
 841 0034 00F0E881 		beq	.L59
 842 0038 00F2BA80 		bhi	.L60
 843 003c 1028     		cmp	r0, #16
 844 003e 00F07281 		beq	.L61
 845 0042 79D8     		bhi	.L62
 846 0044 0428     		cmp	r0, #4
 847 0046 00F04681 		beq	.L63
 848 004a 54D8     		bhi	.L64
 849 004c 0128     		cmp	r0, #1
 850 004e 00F01381 		beq	.L65
 851 0052 0228     		cmp	r0, #2
 852 0054 4DD1     		bne	.L162
 755:Drivers/STM32G4xx_HAL_Driver/Src/stm32g4xx_hal_rcc_ex.c ****     {
 756:Drivers/STM32G4xx_HAL_Driver/Src/stm32g4xx_hal_rcc_ex.c **** 
 757:Drivers/STM32G4xx_HAL_Driver/Src/stm32g4xx_hal_rcc_ex.c ****     case RCC_PERIPHCLK_USART1:
 758:Drivers/STM32G4xx_HAL_Driver/Src/stm32g4xx_hal_rcc_ex.c ****       /* Get the current USART1 source */
 759:Drivers/STM32G4xx_HAL_Driver/Src/stm32g4xx_hal_rcc_ex.c ****       srcclk = __HAL_RCC_GET_USART1_SOURCE();
 760:Drivers/STM32G4xx_HAL_Driver/Src/stm32g4xx_hal_rcc_ex.c **** 
 761:Drivers/STM32G4xx_HAL_Driver/Src/stm32g4xx_hal_rcc_ex.c ****       if(srcclk == RCC_USART1CLKSOURCE_PCLK2)
 762:Drivers/STM32G4xx_HAL_Driver/Src/stm32g4xx_hal_rcc_ex.c ****       {
 763:Drivers/STM32G4xx_HAL_Driver/Src/stm32g4xx_hal_rcc_ex.c ****         frequency = HAL_RCC_GetPCLK2Freq();
 764:Drivers/STM32G4xx_HAL_Driver/Src/stm32g4xx_hal_rcc_ex.c ****       }
 765:Drivers/STM32G4xx_HAL_Driver/Src/stm32g4xx_hal_rcc_ex.c ****       else if(srcclk == RCC_USART1CLKSOURCE_SYSCLK)
 766:Drivers/STM32G4xx_HAL_Driver/Src/stm32g4xx_hal_rcc_ex.c ****       {
 767:Drivers/STM32G4xx_HAL_Driver/Src/stm32g4xx_hal_rcc_ex.c ****         frequency = HAL_RCC_GetSysClockFreq();
 768:Drivers/STM32G4xx_HAL_Driver/Src/stm32g4xx_hal_rcc_ex.c ****       }
 769:Drivers/STM32G4xx_HAL_Driver/Src/stm32g4xx_hal_rcc_ex.c ****       else if((HAL_IS_BIT_SET(RCC->CR, RCC_CR_HSIRDY)) && (srcclk == RCC_USART1CLKSOURCE_HSI) )
 770:Drivers/STM32G4xx_HAL_Driver/Src/stm32g4xx_hal_rcc_ex.c ****       {
 771:Drivers/STM32G4xx_HAL_Driver/Src/stm32g4xx_hal_rcc_ex.c ****         frequency = HSI_VALUE;
 772:Drivers/STM32G4xx_HAL_Driver/Src/stm32g4xx_hal_rcc_ex.c ****       }
 773:Drivers/STM32G4xx_HAL_Driver/Src/stm32g4xx_hal_rcc_ex.c ****       else if((HAL_IS_BIT_SET(RCC->BDCR, RCC_BDCR_LSERDY)) && (srcclk == RCC_USART1CLKSOURCE_LSE))
 774:Drivers/STM32G4xx_HAL_Driver/Src/stm32g4xx_hal_rcc_ex.c ****       {
 775:Drivers/STM32G4xx_HAL_Driver/Src/stm32g4xx_hal_rcc_ex.c ****         frequency = LSE_VALUE;
 776:Drivers/STM32G4xx_HAL_Driver/Src/stm32g4xx_hal_rcc_ex.c ****       }
 777:Drivers/STM32G4xx_HAL_Driver/Src/stm32g4xx_hal_rcc_ex.c ****       /* Clock not enabled for USART1 */
 778:Drivers/STM32G4xx_HAL_Driver/Src/stm32g4xx_hal_rcc_ex.c ****       else
 779:Drivers/STM32G4xx_HAL_Driver/Src/stm32g4xx_hal_rcc_ex.c ****       {
 780:Drivers/STM32G4xx_HAL_Driver/Src/stm32g4xx_hal_rcc_ex.c ****         /* nothing to do: frequency already initialized to 0 */
ARM GAS  C:\Users\aniru.000\AppData\Local\Temp\ccGZAzIF.s 			page 30


 781:Drivers/STM32G4xx_HAL_Driver/Src/stm32g4xx_hal_rcc_ex.c ****       }
 782:Drivers/STM32G4xx_HAL_Driver/Src/stm32g4xx_hal_rcc_ex.c ****       break;
 783:Drivers/STM32G4xx_HAL_Driver/Src/stm32g4xx_hal_rcc_ex.c **** 
 784:Drivers/STM32G4xx_HAL_Driver/Src/stm32g4xx_hal_rcc_ex.c ****     case RCC_PERIPHCLK_USART2:
 785:Drivers/STM32G4xx_HAL_Driver/Src/stm32g4xx_hal_rcc_ex.c ****       /* Get the current USART2 source */
 786:Drivers/STM32G4xx_HAL_Driver/Src/stm32g4xx_hal_rcc_ex.c ****       srcclk = __HAL_RCC_GET_USART2_SOURCE();
 853              		.loc 1 786 7 view .LVU285
 854              		.loc 1 786 16 is_stmt 0 view .LVU286
 855 0056 9B4B     		ldr	r3, .L202
 856 0058 D3F88830 		ldr	r3, [r3, #136]
 857              	.LVL31:
 787:Drivers/STM32G4xx_HAL_Driver/Src/stm32g4xx_hal_rcc_ex.c **** 
 788:Drivers/STM32G4xx_HAL_Driver/Src/stm32g4xx_hal_rcc_ex.c ****       if(srcclk == RCC_USART2CLKSOURCE_PCLK1)
 858              		.loc 1 788 7 is_stmt 1 view .LVU287
 859              		.loc 1 788 9 is_stmt 0 view .LVU288
 860 005c 13F00C03 		ands	r3, r3, #12
 861              	.LVL32:
 862              		.loc 1 788 9 view .LVU289
 863 0060 00F02C81 		beq	.L163
 789:Drivers/STM32G4xx_HAL_Driver/Src/stm32g4xx_hal_rcc_ex.c ****       {
 790:Drivers/STM32G4xx_HAL_Driver/Src/stm32g4xx_hal_rcc_ex.c ****         frequency = HAL_RCC_GetPCLK1Freq();
 791:Drivers/STM32G4xx_HAL_Driver/Src/stm32g4xx_hal_rcc_ex.c ****       }
 792:Drivers/STM32G4xx_HAL_Driver/Src/stm32g4xx_hal_rcc_ex.c ****       else if(srcclk == RCC_USART2CLKSOURCE_SYSCLK)
 864              		.loc 1 792 12 is_stmt 1 view .LVU290
 865              		.loc 1 792 14 is_stmt 0 view .LVU291
 866 0064 042B     		cmp	r3, #4
 867 0066 00F03381 		beq	.L164
 793:Drivers/STM32G4xx_HAL_Driver/Src/stm32g4xx_hal_rcc_ex.c ****       {
 794:Drivers/STM32G4xx_HAL_Driver/Src/stm32g4xx_hal_rcc_ex.c ****         frequency = HAL_RCC_GetSysClockFreq();
 795:Drivers/STM32G4xx_HAL_Driver/Src/stm32g4xx_hal_rcc_ex.c ****       }
 796:Drivers/STM32G4xx_HAL_Driver/Src/stm32g4xx_hal_rcc_ex.c ****       else if((HAL_IS_BIT_SET(RCC->CR, RCC_CR_HSIRDY)) && (srcclk == RCC_USART2CLKSOURCE_HSI))
 868              		.loc 1 796 12 is_stmt 1 view .LVU292
 869              		.loc 1 796 16 is_stmt 0 view .LVU293
 870 006a 964A     		ldr	r2, .L202
 871              	.LVL33:
 872              		.loc 1 796 16 view .LVU294
 873 006c 1268     		ldr	r2, [r2]
 874              		.loc 1 796 14 view .LVU295
 875 006e 12F4806F 		tst	r2, #1024
 876 0072 02D0     		beq	.L88
 877              		.loc 1 796 56 discriminator 1 view .LVU296
 878 0074 082B     		cmp	r3, #8
 879 0076 00F01283 		beq	.L128
 880              	.L88:
 797:Drivers/STM32G4xx_HAL_Driver/Src/stm32g4xx_hal_rcc_ex.c ****       {
 798:Drivers/STM32G4xx_HAL_Driver/Src/stm32g4xx_hal_rcc_ex.c ****         frequency = HSI_VALUE;
 799:Drivers/STM32G4xx_HAL_Driver/Src/stm32g4xx_hal_rcc_ex.c ****       }
 800:Drivers/STM32G4xx_HAL_Driver/Src/stm32g4xx_hal_rcc_ex.c ****       else if((HAL_IS_BIT_SET(RCC->BDCR, RCC_BDCR_LSERDY))  && (srcclk == RCC_USART2CLKSOURCE_LSE))
 881              		.loc 1 800 12 is_stmt 1 view .LVU297
 882              		.loc 1 800 16 is_stmt 0 view .LVU298
 883 007a 924A     		ldr	r2, .L202
 884 007c D2F89000 		ldr	r0, [r2, #144]
 885              	.LVL34:
 886              		.loc 1 800 14 view .LVU299
 887 0080 10F00200 		ands	r0, r0, #2
 888 0084 26D0     		beq	.L52
 889              		.loc 1 800 61 discriminator 1 view .LVU300
ARM GAS  C:\Users\aniru.000\AppData\Local\Temp\ccGZAzIF.s 			page 31


 890 0086 0C2B     		cmp	r3, #12
 891 0088 00F00B83 		beq	.L129
 686:Drivers/STM32G4xx_HAL_Driver/Src/stm32g4xx_hal_rcc_ex.c ****   uint32_t srcclk;
 892              		.loc 1 686 12 view .LVU301
 893 008c 0020     		movs	r0, #0
 894 008e 21E0     		b	.L52
 895              	.LVL35:
 896              	.L159:
 696:Drivers/STM32G4xx_HAL_Driver/Src/stm32g4xx_hal_rcc_ex.c **** 
 897              		.loc 1 696 5 is_stmt 1 view .LVU302
 696:Drivers/STM32G4xx_HAL_Driver/Src/stm32g4xx_hal_rcc_ex.c **** 
 898              		.loc 1 696 14 is_stmt 0 view .LVU303
 899 0090 8C4A     		ldr	r2, .L202
 900 0092 D2F89030 		ldr	r3, [r2, #144]
 696:Drivers/STM32G4xx_HAL_Driver/Src/stm32g4xx_hal_rcc_ex.c **** 
 901              		.loc 1 696 12 view .LVU304
 902 0096 03F44073 		and	r3, r3, #768
 903              	.LVL36:
 699:Drivers/STM32G4xx_HAL_Driver/Src/stm32g4xx_hal_rcc_ex.c ****     {
 904              		.loc 1 699 5 is_stmt 1 view .LVU305
 699:Drivers/STM32G4xx_HAL_Driver/Src/stm32g4xx_hal_rcc_ex.c ****     {
 905              		.loc 1 699 10 is_stmt 0 view .LVU306
 906 009a D2F89020 		ldr	r2, [r2, #144]
 699:Drivers/STM32G4xx_HAL_Driver/Src/stm32g4xx_hal_rcc_ex.c ****     {
 907              		.loc 1 699 8 view .LVU307
 908 009e 12F0020F 		tst	r2, #2
 909 00a2 03D0     		beq	.L54
 699:Drivers/STM32G4xx_HAL_Driver/Src/stm32g4xx_hal_rcc_ex.c ****     {
 910              		.loc 1 699 54 discriminator 1 view .LVU308
 911 00a4 B3F5807F 		cmp	r3, #256
 912 00a8 00F0EC82 		beq	.L122
 913              	.L54:
 704:Drivers/STM32G4xx_HAL_Driver/Src/stm32g4xx_hal_rcc_ex.c ****     {
 914              		.loc 1 704 10 is_stmt 1 view .LVU309
 704:Drivers/STM32G4xx_HAL_Driver/Src/stm32g4xx_hal_rcc_ex.c ****     {
 915              		.loc 1 704 15 is_stmt 0 view .LVU310
 916 00ac 854A     		ldr	r2, .L202
 917 00ae D2F89420 		ldr	r2, [r2, #148]
 704:Drivers/STM32G4xx_HAL_Driver/Src/stm32g4xx_hal_rcc_ex.c ****     {
 918              		.loc 1 704 13 view .LVU311
 919 00b2 12F0020F 		tst	r2, #2
 920 00b6 03D0     		beq	.L56
 704:Drivers/STM32G4xx_HAL_Driver/Src/stm32g4xx_hal_rcc_ex.c ****     {
 921              		.loc 1 704 57 discriminator 1 view .LVU312
 922 00b8 B3F5007F 		cmp	r3, #512
 923 00bc 00F0E582 		beq	.L123
 924              	.L56:
 709:Drivers/STM32G4xx_HAL_Driver/Src/stm32g4xx_hal_rcc_ex.c ****     {
 925              		.loc 1 709 10 is_stmt 1 view .LVU313
 709:Drivers/STM32G4xx_HAL_Driver/Src/stm32g4xx_hal_rcc_ex.c ****     {
 926              		.loc 1 709 15 is_stmt 0 view .LVU314
 927 00c0 804A     		ldr	r2, .L202
 928 00c2 1068     		ldr	r0, [r2]
 929              	.LVL37:
 709:Drivers/STM32G4xx_HAL_Driver/Src/stm32g4xx_hal_rcc_ex.c ****     {
 930              		.loc 1 709 13 view .LVU315
 931 00c4 10F40030 		ands	r0, r0, #131072
ARM GAS  C:\Users\aniru.000\AppData\Local\Temp\ccGZAzIF.s 			page 32


 932 00c8 04D0     		beq	.L52
 709:Drivers/STM32G4xx_HAL_Driver/Src/stm32g4xx_hal_rcc_ex.c ****     {
 933              		.loc 1 709 55 discriminator 1 view .LVU316
 934 00ca B3F5407F 		cmp	r3, #768
 935 00ce 00F0DF82 		beq	.L124
 686:Drivers/STM32G4xx_HAL_Driver/Src/stm32g4xx_hal_rcc_ex.c ****   uint32_t srcclk;
 936              		.loc 1 686 12 view .LVU317
 937 00d2 0020     		movs	r0, #0
 938              	.LVL38:
 939              	.L52:
 801:Drivers/STM32G4xx_HAL_Driver/Src/stm32g4xx_hal_rcc_ex.c ****       {
 802:Drivers/STM32G4xx_HAL_Driver/Src/stm32g4xx_hal_rcc_ex.c ****         frequency = LSE_VALUE;
 803:Drivers/STM32G4xx_HAL_Driver/Src/stm32g4xx_hal_rcc_ex.c ****       }
 804:Drivers/STM32G4xx_HAL_Driver/Src/stm32g4xx_hal_rcc_ex.c ****       /* Clock not enabled for USART2 */
 805:Drivers/STM32G4xx_HAL_Driver/Src/stm32g4xx_hal_rcc_ex.c ****       else
 806:Drivers/STM32G4xx_HAL_Driver/Src/stm32g4xx_hal_rcc_ex.c ****       {
 807:Drivers/STM32G4xx_HAL_Driver/Src/stm32g4xx_hal_rcc_ex.c ****         /* nothing to do: frequency already initialized to 0 */
 808:Drivers/STM32G4xx_HAL_Driver/Src/stm32g4xx_hal_rcc_ex.c ****       }
 809:Drivers/STM32G4xx_HAL_Driver/Src/stm32g4xx_hal_rcc_ex.c ****       break;
 810:Drivers/STM32G4xx_HAL_Driver/Src/stm32g4xx_hal_rcc_ex.c **** 
 811:Drivers/STM32G4xx_HAL_Driver/Src/stm32g4xx_hal_rcc_ex.c **** #if defined(USART3)
 812:Drivers/STM32G4xx_HAL_Driver/Src/stm32g4xx_hal_rcc_ex.c ****     case RCC_PERIPHCLK_USART3:
 813:Drivers/STM32G4xx_HAL_Driver/Src/stm32g4xx_hal_rcc_ex.c ****       /* Get the current USART3 source */
 814:Drivers/STM32G4xx_HAL_Driver/Src/stm32g4xx_hal_rcc_ex.c ****       srcclk = __HAL_RCC_GET_USART3_SOURCE();
 815:Drivers/STM32G4xx_HAL_Driver/Src/stm32g4xx_hal_rcc_ex.c **** 
 816:Drivers/STM32G4xx_HAL_Driver/Src/stm32g4xx_hal_rcc_ex.c ****       if(srcclk == RCC_USART3CLKSOURCE_PCLK1)
 817:Drivers/STM32G4xx_HAL_Driver/Src/stm32g4xx_hal_rcc_ex.c ****       {
 818:Drivers/STM32G4xx_HAL_Driver/Src/stm32g4xx_hal_rcc_ex.c ****         frequency = HAL_RCC_GetPCLK1Freq();
 819:Drivers/STM32G4xx_HAL_Driver/Src/stm32g4xx_hal_rcc_ex.c ****       }
 820:Drivers/STM32G4xx_HAL_Driver/Src/stm32g4xx_hal_rcc_ex.c ****       else if(srcclk == RCC_USART3CLKSOURCE_SYSCLK)
 821:Drivers/STM32G4xx_HAL_Driver/Src/stm32g4xx_hal_rcc_ex.c ****       {
 822:Drivers/STM32G4xx_HAL_Driver/Src/stm32g4xx_hal_rcc_ex.c ****         frequency = HAL_RCC_GetSysClockFreq();
 823:Drivers/STM32G4xx_HAL_Driver/Src/stm32g4xx_hal_rcc_ex.c ****       }
 824:Drivers/STM32G4xx_HAL_Driver/Src/stm32g4xx_hal_rcc_ex.c ****       else if((HAL_IS_BIT_SET(RCC->CR, RCC_CR_HSIRDY)) && (srcclk == RCC_USART3CLKSOURCE_HSI))
 825:Drivers/STM32G4xx_HAL_Driver/Src/stm32g4xx_hal_rcc_ex.c ****       {
 826:Drivers/STM32G4xx_HAL_Driver/Src/stm32g4xx_hal_rcc_ex.c ****         frequency = HSI_VALUE;
 827:Drivers/STM32G4xx_HAL_Driver/Src/stm32g4xx_hal_rcc_ex.c ****       }
 828:Drivers/STM32G4xx_HAL_Driver/Src/stm32g4xx_hal_rcc_ex.c ****       else if((HAL_IS_BIT_SET(RCC->BDCR, RCC_BDCR_LSERDY)) && (srcclk == RCC_USART3CLKSOURCE_LSE))
 829:Drivers/STM32G4xx_HAL_Driver/Src/stm32g4xx_hal_rcc_ex.c ****       {
 830:Drivers/STM32G4xx_HAL_Driver/Src/stm32g4xx_hal_rcc_ex.c ****         frequency = LSE_VALUE;
 831:Drivers/STM32G4xx_HAL_Driver/Src/stm32g4xx_hal_rcc_ex.c ****       }
 832:Drivers/STM32G4xx_HAL_Driver/Src/stm32g4xx_hal_rcc_ex.c ****       /* Clock not enabled for USART3 */
 833:Drivers/STM32G4xx_HAL_Driver/Src/stm32g4xx_hal_rcc_ex.c ****       else
 834:Drivers/STM32G4xx_HAL_Driver/Src/stm32g4xx_hal_rcc_ex.c ****       {
 835:Drivers/STM32G4xx_HAL_Driver/Src/stm32g4xx_hal_rcc_ex.c ****         /* nothing to do: frequency already initialized to 0 */
 836:Drivers/STM32G4xx_HAL_Driver/Src/stm32g4xx_hal_rcc_ex.c ****       }
 837:Drivers/STM32G4xx_HAL_Driver/Src/stm32g4xx_hal_rcc_ex.c ****       break;
 838:Drivers/STM32G4xx_HAL_Driver/Src/stm32g4xx_hal_rcc_ex.c **** #endif /* USART3 */
 839:Drivers/STM32G4xx_HAL_Driver/Src/stm32g4xx_hal_rcc_ex.c ****       
 840:Drivers/STM32G4xx_HAL_Driver/Src/stm32g4xx_hal_rcc_ex.c **** #if defined(UART4)
 841:Drivers/STM32G4xx_HAL_Driver/Src/stm32g4xx_hal_rcc_ex.c ****     case RCC_PERIPHCLK_UART4:
 842:Drivers/STM32G4xx_HAL_Driver/Src/stm32g4xx_hal_rcc_ex.c ****       /* Get the current UART4 source */
 843:Drivers/STM32G4xx_HAL_Driver/Src/stm32g4xx_hal_rcc_ex.c ****       srcclk = __HAL_RCC_GET_UART4_SOURCE();
 844:Drivers/STM32G4xx_HAL_Driver/Src/stm32g4xx_hal_rcc_ex.c **** 
 845:Drivers/STM32G4xx_HAL_Driver/Src/stm32g4xx_hal_rcc_ex.c ****       if(srcclk == RCC_UART4CLKSOURCE_PCLK1)
 846:Drivers/STM32G4xx_HAL_Driver/Src/stm32g4xx_hal_rcc_ex.c ****       {
 847:Drivers/STM32G4xx_HAL_Driver/Src/stm32g4xx_hal_rcc_ex.c ****         frequency = HAL_RCC_GetPCLK1Freq();
ARM GAS  C:\Users\aniru.000\AppData\Local\Temp\ccGZAzIF.s 			page 33


 848:Drivers/STM32G4xx_HAL_Driver/Src/stm32g4xx_hal_rcc_ex.c ****       }
 849:Drivers/STM32G4xx_HAL_Driver/Src/stm32g4xx_hal_rcc_ex.c ****       else if(srcclk == RCC_UART4CLKSOURCE_SYSCLK)
 850:Drivers/STM32G4xx_HAL_Driver/Src/stm32g4xx_hal_rcc_ex.c ****       {
 851:Drivers/STM32G4xx_HAL_Driver/Src/stm32g4xx_hal_rcc_ex.c ****         frequency = HAL_RCC_GetSysClockFreq();
 852:Drivers/STM32G4xx_HAL_Driver/Src/stm32g4xx_hal_rcc_ex.c ****       }
 853:Drivers/STM32G4xx_HAL_Driver/Src/stm32g4xx_hal_rcc_ex.c ****       else if((HAL_IS_BIT_SET(RCC->CR, RCC_CR_HSIRDY)) && (srcclk == RCC_UART4CLKSOURCE_HSI))
 854:Drivers/STM32G4xx_HAL_Driver/Src/stm32g4xx_hal_rcc_ex.c ****       {
 855:Drivers/STM32G4xx_HAL_Driver/Src/stm32g4xx_hal_rcc_ex.c ****         frequency = HSI_VALUE;
 856:Drivers/STM32G4xx_HAL_Driver/Src/stm32g4xx_hal_rcc_ex.c ****       }
 857:Drivers/STM32G4xx_HAL_Driver/Src/stm32g4xx_hal_rcc_ex.c ****       else if((HAL_IS_BIT_SET(RCC->BDCR, RCC_BDCR_LSERDY)) && (srcclk == RCC_UART4CLKSOURCE_LSE))
 858:Drivers/STM32G4xx_HAL_Driver/Src/stm32g4xx_hal_rcc_ex.c ****       {
 859:Drivers/STM32G4xx_HAL_Driver/Src/stm32g4xx_hal_rcc_ex.c ****         frequency = LSE_VALUE;
 860:Drivers/STM32G4xx_HAL_Driver/Src/stm32g4xx_hal_rcc_ex.c ****       }
 861:Drivers/STM32G4xx_HAL_Driver/Src/stm32g4xx_hal_rcc_ex.c ****       /* Clock not enabled for UART4 */
 862:Drivers/STM32G4xx_HAL_Driver/Src/stm32g4xx_hal_rcc_ex.c ****       else
 863:Drivers/STM32G4xx_HAL_Driver/Src/stm32g4xx_hal_rcc_ex.c ****       {
 864:Drivers/STM32G4xx_HAL_Driver/Src/stm32g4xx_hal_rcc_ex.c ****         /* nothing to do: frequency already initialized to 0 */
 865:Drivers/STM32G4xx_HAL_Driver/Src/stm32g4xx_hal_rcc_ex.c ****       }
 866:Drivers/STM32G4xx_HAL_Driver/Src/stm32g4xx_hal_rcc_ex.c ****       break;
 867:Drivers/STM32G4xx_HAL_Driver/Src/stm32g4xx_hal_rcc_ex.c **** #endif /* UART4 */
 868:Drivers/STM32G4xx_HAL_Driver/Src/stm32g4xx_hal_rcc_ex.c **** 
 869:Drivers/STM32G4xx_HAL_Driver/Src/stm32g4xx_hal_rcc_ex.c **** #if defined(UART5)
 870:Drivers/STM32G4xx_HAL_Driver/Src/stm32g4xx_hal_rcc_ex.c ****     case RCC_PERIPHCLK_UART5:
 871:Drivers/STM32G4xx_HAL_Driver/Src/stm32g4xx_hal_rcc_ex.c ****       /* Get the current UART5 source */
 872:Drivers/STM32G4xx_HAL_Driver/Src/stm32g4xx_hal_rcc_ex.c ****       srcclk = __HAL_RCC_GET_UART5_SOURCE();
 873:Drivers/STM32G4xx_HAL_Driver/Src/stm32g4xx_hal_rcc_ex.c **** 
 874:Drivers/STM32G4xx_HAL_Driver/Src/stm32g4xx_hal_rcc_ex.c ****       if(srcclk == RCC_UART5CLKSOURCE_PCLK1)
 875:Drivers/STM32G4xx_HAL_Driver/Src/stm32g4xx_hal_rcc_ex.c ****       {
 876:Drivers/STM32G4xx_HAL_Driver/Src/stm32g4xx_hal_rcc_ex.c ****         frequency = HAL_RCC_GetPCLK1Freq();
 877:Drivers/STM32G4xx_HAL_Driver/Src/stm32g4xx_hal_rcc_ex.c ****       }
 878:Drivers/STM32G4xx_HAL_Driver/Src/stm32g4xx_hal_rcc_ex.c ****       else if(srcclk == RCC_UART5CLKSOURCE_SYSCLK)
 879:Drivers/STM32G4xx_HAL_Driver/Src/stm32g4xx_hal_rcc_ex.c ****       {
 880:Drivers/STM32G4xx_HAL_Driver/Src/stm32g4xx_hal_rcc_ex.c ****         frequency = HAL_RCC_GetSysClockFreq();
 881:Drivers/STM32G4xx_HAL_Driver/Src/stm32g4xx_hal_rcc_ex.c ****       }
 882:Drivers/STM32G4xx_HAL_Driver/Src/stm32g4xx_hal_rcc_ex.c ****       else if((HAL_IS_BIT_SET(RCC->CR, RCC_CR_HSIRDY)) && (srcclk == RCC_UART5CLKSOURCE_HSI))
 883:Drivers/STM32G4xx_HAL_Driver/Src/stm32g4xx_hal_rcc_ex.c ****       {
 884:Drivers/STM32G4xx_HAL_Driver/Src/stm32g4xx_hal_rcc_ex.c ****         frequency = HSI_VALUE;
 885:Drivers/STM32G4xx_HAL_Driver/Src/stm32g4xx_hal_rcc_ex.c ****       }
 886:Drivers/STM32G4xx_HAL_Driver/Src/stm32g4xx_hal_rcc_ex.c ****       else if((HAL_IS_BIT_SET(RCC->BDCR, RCC_BDCR_LSERDY)) && (srcclk == RCC_UART5CLKSOURCE_LSE))
 887:Drivers/STM32G4xx_HAL_Driver/Src/stm32g4xx_hal_rcc_ex.c ****       {
 888:Drivers/STM32G4xx_HAL_Driver/Src/stm32g4xx_hal_rcc_ex.c ****         frequency = LSE_VALUE;
 889:Drivers/STM32G4xx_HAL_Driver/Src/stm32g4xx_hal_rcc_ex.c ****       }
 890:Drivers/STM32G4xx_HAL_Driver/Src/stm32g4xx_hal_rcc_ex.c ****       /* Clock not enabled for UART5 */
 891:Drivers/STM32G4xx_HAL_Driver/Src/stm32g4xx_hal_rcc_ex.c ****       else
 892:Drivers/STM32G4xx_HAL_Driver/Src/stm32g4xx_hal_rcc_ex.c ****       {
 893:Drivers/STM32G4xx_HAL_Driver/Src/stm32g4xx_hal_rcc_ex.c ****         /* nothing to do: frequency already initialized to 0 */
 894:Drivers/STM32G4xx_HAL_Driver/Src/stm32g4xx_hal_rcc_ex.c ****       }
 895:Drivers/STM32G4xx_HAL_Driver/Src/stm32g4xx_hal_rcc_ex.c ****       break;
 896:Drivers/STM32G4xx_HAL_Driver/Src/stm32g4xx_hal_rcc_ex.c **** #endif /* UART5 */
 897:Drivers/STM32G4xx_HAL_Driver/Src/stm32g4xx_hal_rcc_ex.c **** 
 898:Drivers/STM32G4xx_HAL_Driver/Src/stm32g4xx_hal_rcc_ex.c ****     case RCC_PERIPHCLK_LPUART1:
 899:Drivers/STM32G4xx_HAL_Driver/Src/stm32g4xx_hal_rcc_ex.c ****       /* Get the current LPUART1 source */
 900:Drivers/STM32G4xx_HAL_Driver/Src/stm32g4xx_hal_rcc_ex.c ****       srcclk = __HAL_RCC_GET_LPUART1_SOURCE();
 901:Drivers/STM32G4xx_HAL_Driver/Src/stm32g4xx_hal_rcc_ex.c **** 
 902:Drivers/STM32G4xx_HAL_Driver/Src/stm32g4xx_hal_rcc_ex.c ****       if(srcclk == RCC_LPUART1CLKSOURCE_PCLK1)
 903:Drivers/STM32G4xx_HAL_Driver/Src/stm32g4xx_hal_rcc_ex.c ****       {
 904:Drivers/STM32G4xx_HAL_Driver/Src/stm32g4xx_hal_rcc_ex.c ****         frequency = HAL_RCC_GetPCLK1Freq();
ARM GAS  C:\Users\aniru.000\AppData\Local\Temp\ccGZAzIF.s 			page 34


 905:Drivers/STM32G4xx_HAL_Driver/Src/stm32g4xx_hal_rcc_ex.c ****       }
 906:Drivers/STM32G4xx_HAL_Driver/Src/stm32g4xx_hal_rcc_ex.c ****       else if(srcclk == RCC_LPUART1CLKSOURCE_SYSCLK)
 907:Drivers/STM32G4xx_HAL_Driver/Src/stm32g4xx_hal_rcc_ex.c ****       {
 908:Drivers/STM32G4xx_HAL_Driver/Src/stm32g4xx_hal_rcc_ex.c ****         frequency = HAL_RCC_GetSysClockFreq();
 909:Drivers/STM32G4xx_HAL_Driver/Src/stm32g4xx_hal_rcc_ex.c ****       }
 910:Drivers/STM32G4xx_HAL_Driver/Src/stm32g4xx_hal_rcc_ex.c ****       else if((HAL_IS_BIT_SET(RCC->CR, RCC_CR_HSIRDY)) && (srcclk == RCC_LPUART1CLKSOURCE_HSI))
 911:Drivers/STM32G4xx_HAL_Driver/Src/stm32g4xx_hal_rcc_ex.c ****       {
 912:Drivers/STM32G4xx_HAL_Driver/Src/stm32g4xx_hal_rcc_ex.c ****         frequency = HSI_VALUE;
 913:Drivers/STM32G4xx_HAL_Driver/Src/stm32g4xx_hal_rcc_ex.c ****       }
 914:Drivers/STM32G4xx_HAL_Driver/Src/stm32g4xx_hal_rcc_ex.c ****       else if((HAL_IS_BIT_SET(RCC->BDCR, RCC_BDCR_LSERDY)) && (srcclk == RCC_LPUART1CLKSOURCE_LSE))
 915:Drivers/STM32G4xx_HAL_Driver/Src/stm32g4xx_hal_rcc_ex.c ****       {
 916:Drivers/STM32G4xx_HAL_Driver/Src/stm32g4xx_hal_rcc_ex.c ****         frequency = LSE_VALUE;
 917:Drivers/STM32G4xx_HAL_Driver/Src/stm32g4xx_hal_rcc_ex.c ****       }
 918:Drivers/STM32G4xx_HAL_Driver/Src/stm32g4xx_hal_rcc_ex.c ****       /* Clock not enabled for LPUART1 */
 919:Drivers/STM32G4xx_HAL_Driver/Src/stm32g4xx_hal_rcc_ex.c ****       else
 920:Drivers/STM32G4xx_HAL_Driver/Src/stm32g4xx_hal_rcc_ex.c ****       {
 921:Drivers/STM32G4xx_HAL_Driver/Src/stm32g4xx_hal_rcc_ex.c ****         /* nothing to do: frequency already initialized to 0 */
 922:Drivers/STM32G4xx_HAL_Driver/Src/stm32g4xx_hal_rcc_ex.c ****       }
 923:Drivers/STM32G4xx_HAL_Driver/Src/stm32g4xx_hal_rcc_ex.c ****       break;
 924:Drivers/STM32G4xx_HAL_Driver/Src/stm32g4xx_hal_rcc_ex.c **** 
 925:Drivers/STM32G4xx_HAL_Driver/Src/stm32g4xx_hal_rcc_ex.c ****     case RCC_PERIPHCLK_I2C1:
 926:Drivers/STM32G4xx_HAL_Driver/Src/stm32g4xx_hal_rcc_ex.c ****       /* Get the current I2C1 source */
 927:Drivers/STM32G4xx_HAL_Driver/Src/stm32g4xx_hal_rcc_ex.c ****       srcclk = __HAL_RCC_GET_I2C1_SOURCE();
 928:Drivers/STM32G4xx_HAL_Driver/Src/stm32g4xx_hal_rcc_ex.c **** 
 929:Drivers/STM32G4xx_HAL_Driver/Src/stm32g4xx_hal_rcc_ex.c ****       if(srcclk == RCC_I2C1CLKSOURCE_PCLK1)
 930:Drivers/STM32G4xx_HAL_Driver/Src/stm32g4xx_hal_rcc_ex.c ****       {
 931:Drivers/STM32G4xx_HAL_Driver/Src/stm32g4xx_hal_rcc_ex.c ****         frequency = HAL_RCC_GetPCLK1Freq();
 932:Drivers/STM32G4xx_HAL_Driver/Src/stm32g4xx_hal_rcc_ex.c ****       }
 933:Drivers/STM32G4xx_HAL_Driver/Src/stm32g4xx_hal_rcc_ex.c ****       else if(srcclk == RCC_I2C1CLKSOURCE_SYSCLK)
 934:Drivers/STM32G4xx_HAL_Driver/Src/stm32g4xx_hal_rcc_ex.c ****       {
 935:Drivers/STM32G4xx_HAL_Driver/Src/stm32g4xx_hal_rcc_ex.c ****         frequency = HAL_RCC_GetSysClockFreq();
 936:Drivers/STM32G4xx_HAL_Driver/Src/stm32g4xx_hal_rcc_ex.c ****       }
 937:Drivers/STM32G4xx_HAL_Driver/Src/stm32g4xx_hal_rcc_ex.c ****       else if((HAL_IS_BIT_SET(RCC->CR, RCC_CR_HSIRDY)) && (srcclk == RCC_I2C1CLKSOURCE_HSI))
 938:Drivers/STM32G4xx_HAL_Driver/Src/stm32g4xx_hal_rcc_ex.c ****       {
 939:Drivers/STM32G4xx_HAL_Driver/Src/stm32g4xx_hal_rcc_ex.c ****         frequency = HSI_VALUE;
 940:Drivers/STM32G4xx_HAL_Driver/Src/stm32g4xx_hal_rcc_ex.c ****       }
 941:Drivers/STM32G4xx_HAL_Driver/Src/stm32g4xx_hal_rcc_ex.c ****       /* Clock not enabled for I2C1 */
 942:Drivers/STM32G4xx_HAL_Driver/Src/stm32g4xx_hal_rcc_ex.c ****       else
 943:Drivers/STM32G4xx_HAL_Driver/Src/stm32g4xx_hal_rcc_ex.c ****       {
 944:Drivers/STM32G4xx_HAL_Driver/Src/stm32g4xx_hal_rcc_ex.c ****         /* nothing to do: frequency already initialized to 0 */
 945:Drivers/STM32G4xx_HAL_Driver/Src/stm32g4xx_hal_rcc_ex.c ****       }
 946:Drivers/STM32G4xx_HAL_Driver/Src/stm32g4xx_hal_rcc_ex.c ****       break;
 947:Drivers/STM32G4xx_HAL_Driver/Src/stm32g4xx_hal_rcc_ex.c **** 
 948:Drivers/STM32G4xx_HAL_Driver/Src/stm32g4xx_hal_rcc_ex.c ****     case RCC_PERIPHCLK_I2C2:
 949:Drivers/STM32G4xx_HAL_Driver/Src/stm32g4xx_hal_rcc_ex.c ****       /* Get the current I2C2 source */
 950:Drivers/STM32G4xx_HAL_Driver/Src/stm32g4xx_hal_rcc_ex.c ****       srcclk = __HAL_RCC_GET_I2C2_SOURCE();
 951:Drivers/STM32G4xx_HAL_Driver/Src/stm32g4xx_hal_rcc_ex.c **** 
 952:Drivers/STM32G4xx_HAL_Driver/Src/stm32g4xx_hal_rcc_ex.c ****       if(srcclk == RCC_I2C2CLKSOURCE_PCLK1)
 953:Drivers/STM32G4xx_HAL_Driver/Src/stm32g4xx_hal_rcc_ex.c ****       {
 954:Drivers/STM32G4xx_HAL_Driver/Src/stm32g4xx_hal_rcc_ex.c ****         frequency = HAL_RCC_GetPCLK1Freq();
 955:Drivers/STM32G4xx_HAL_Driver/Src/stm32g4xx_hal_rcc_ex.c ****       }
 956:Drivers/STM32G4xx_HAL_Driver/Src/stm32g4xx_hal_rcc_ex.c ****       else if(srcclk == RCC_I2C2CLKSOURCE_SYSCLK)
 957:Drivers/STM32G4xx_HAL_Driver/Src/stm32g4xx_hal_rcc_ex.c ****       {
 958:Drivers/STM32G4xx_HAL_Driver/Src/stm32g4xx_hal_rcc_ex.c ****         frequency = HAL_RCC_GetSysClockFreq();
 959:Drivers/STM32G4xx_HAL_Driver/Src/stm32g4xx_hal_rcc_ex.c ****       }
 960:Drivers/STM32G4xx_HAL_Driver/Src/stm32g4xx_hal_rcc_ex.c ****       else if((HAL_IS_BIT_SET(RCC->CR, RCC_CR_HSIRDY)) && (srcclk == RCC_I2C2CLKSOURCE_HSI))
 961:Drivers/STM32G4xx_HAL_Driver/Src/stm32g4xx_hal_rcc_ex.c ****       {
ARM GAS  C:\Users\aniru.000\AppData\Local\Temp\ccGZAzIF.s 			page 35


 962:Drivers/STM32G4xx_HAL_Driver/Src/stm32g4xx_hal_rcc_ex.c ****         frequency = HSI_VALUE;
 963:Drivers/STM32G4xx_HAL_Driver/Src/stm32g4xx_hal_rcc_ex.c ****       }
 964:Drivers/STM32G4xx_HAL_Driver/Src/stm32g4xx_hal_rcc_ex.c ****       /* Clock not enabled for I2C2 */
 965:Drivers/STM32G4xx_HAL_Driver/Src/stm32g4xx_hal_rcc_ex.c ****       else
 966:Drivers/STM32G4xx_HAL_Driver/Src/stm32g4xx_hal_rcc_ex.c ****       {
 967:Drivers/STM32G4xx_HAL_Driver/Src/stm32g4xx_hal_rcc_ex.c ****         /* nothing to do: frequency already initialized to 0 */
 968:Drivers/STM32G4xx_HAL_Driver/Src/stm32g4xx_hal_rcc_ex.c ****       }
 969:Drivers/STM32G4xx_HAL_Driver/Src/stm32g4xx_hal_rcc_ex.c ****       break;
 970:Drivers/STM32G4xx_HAL_Driver/Src/stm32g4xx_hal_rcc_ex.c **** 
 971:Drivers/STM32G4xx_HAL_Driver/Src/stm32g4xx_hal_rcc_ex.c **** #if defined(I2C3)
 972:Drivers/STM32G4xx_HAL_Driver/Src/stm32g4xx_hal_rcc_ex.c **** 
 973:Drivers/STM32G4xx_HAL_Driver/Src/stm32g4xx_hal_rcc_ex.c ****     case RCC_PERIPHCLK_I2C3:
 974:Drivers/STM32G4xx_HAL_Driver/Src/stm32g4xx_hal_rcc_ex.c ****       /* Get the current I2C3 source */
 975:Drivers/STM32G4xx_HAL_Driver/Src/stm32g4xx_hal_rcc_ex.c ****       srcclk = __HAL_RCC_GET_I2C3_SOURCE();
 976:Drivers/STM32G4xx_HAL_Driver/Src/stm32g4xx_hal_rcc_ex.c **** 
 977:Drivers/STM32G4xx_HAL_Driver/Src/stm32g4xx_hal_rcc_ex.c ****       if(srcclk == RCC_I2C3CLKSOURCE_PCLK1)
 978:Drivers/STM32G4xx_HAL_Driver/Src/stm32g4xx_hal_rcc_ex.c ****       {
 979:Drivers/STM32G4xx_HAL_Driver/Src/stm32g4xx_hal_rcc_ex.c ****         frequency = HAL_RCC_GetPCLK1Freq();
 980:Drivers/STM32G4xx_HAL_Driver/Src/stm32g4xx_hal_rcc_ex.c ****       }
 981:Drivers/STM32G4xx_HAL_Driver/Src/stm32g4xx_hal_rcc_ex.c ****       else if(srcclk == RCC_I2C3CLKSOURCE_SYSCLK)
 982:Drivers/STM32G4xx_HAL_Driver/Src/stm32g4xx_hal_rcc_ex.c ****       {
 983:Drivers/STM32G4xx_HAL_Driver/Src/stm32g4xx_hal_rcc_ex.c ****         frequency = HAL_RCC_GetSysClockFreq();
 984:Drivers/STM32G4xx_HAL_Driver/Src/stm32g4xx_hal_rcc_ex.c ****       }
 985:Drivers/STM32G4xx_HAL_Driver/Src/stm32g4xx_hal_rcc_ex.c ****       else if((HAL_IS_BIT_SET(RCC->CR, RCC_CR_HSIRDY)) && (srcclk == RCC_I2C3CLKSOURCE_HSI))
 986:Drivers/STM32G4xx_HAL_Driver/Src/stm32g4xx_hal_rcc_ex.c ****       {
 987:Drivers/STM32G4xx_HAL_Driver/Src/stm32g4xx_hal_rcc_ex.c ****         frequency = HSI_VALUE;
 988:Drivers/STM32G4xx_HAL_Driver/Src/stm32g4xx_hal_rcc_ex.c ****       }
 989:Drivers/STM32G4xx_HAL_Driver/Src/stm32g4xx_hal_rcc_ex.c ****       /* Clock not enabled for I2C3 */
 990:Drivers/STM32G4xx_HAL_Driver/Src/stm32g4xx_hal_rcc_ex.c ****       else
 991:Drivers/STM32G4xx_HAL_Driver/Src/stm32g4xx_hal_rcc_ex.c ****       {
 992:Drivers/STM32G4xx_HAL_Driver/Src/stm32g4xx_hal_rcc_ex.c ****         /* nothing to do: frequency already initialized to 0 */
 993:Drivers/STM32G4xx_HAL_Driver/Src/stm32g4xx_hal_rcc_ex.c ****       }
 994:Drivers/STM32G4xx_HAL_Driver/Src/stm32g4xx_hal_rcc_ex.c ****       break;
 995:Drivers/STM32G4xx_HAL_Driver/Src/stm32g4xx_hal_rcc_ex.c **** 
 996:Drivers/STM32G4xx_HAL_Driver/Src/stm32g4xx_hal_rcc_ex.c **** #endif /* I2C3 */
 997:Drivers/STM32G4xx_HAL_Driver/Src/stm32g4xx_hal_rcc_ex.c **** 
 998:Drivers/STM32G4xx_HAL_Driver/Src/stm32g4xx_hal_rcc_ex.c **** #if defined(I2C4)
 999:Drivers/STM32G4xx_HAL_Driver/Src/stm32g4xx_hal_rcc_ex.c **** 
1000:Drivers/STM32G4xx_HAL_Driver/Src/stm32g4xx_hal_rcc_ex.c ****     case RCC_PERIPHCLK_I2C4:
1001:Drivers/STM32G4xx_HAL_Driver/Src/stm32g4xx_hal_rcc_ex.c ****       /* Get the current I2C4 source */
1002:Drivers/STM32G4xx_HAL_Driver/Src/stm32g4xx_hal_rcc_ex.c ****       srcclk = __HAL_RCC_GET_I2C4_SOURCE();
1003:Drivers/STM32G4xx_HAL_Driver/Src/stm32g4xx_hal_rcc_ex.c **** 
1004:Drivers/STM32G4xx_HAL_Driver/Src/stm32g4xx_hal_rcc_ex.c ****       if(srcclk == RCC_I2C4CLKSOURCE_PCLK1)
1005:Drivers/STM32G4xx_HAL_Driver/Src/stm32g4xx_hal_rcc_ex.c ****       {
1006:Drivers/STM32G4xx_HAL_Driver/Src/stm32g4xx_hal_rcc_ex.c ****         frequency = HAL_RCC_GetPCLK1Freq();
1007:Drivers/STM32G4xx_HAL_Driver/Src/stm32g4xx_hal_rcc_ex.c ****       }
1008:Drivers/STM32G4xx_HAL_Driver/Src/stm32g4xx_hal_rcc_ex.c ****       else if(srcclk == RCC_I2C4CLKSOURCE_SYSCLK)
1009:Drivers/STM32G4xx_HAL_Driver/Src/stm32g4xx_hal_rcc_ex.c ****       {
1010:Drivers/STM32G4xx_HAL_Driver/Src/stm32g4xx_hal_rcc_ex.c ****         frequency = HAL_RCC_GetSysClockFreq();
1011:Drivers/STM32G4xx_HAL_Driver/Src/stm32g4xx_hal_rcc_ex.c ****       }
1012:Drivers/STM32G4xx_HAL_Driver/Src/stm32g4xx_hal_rcc_ex.c ****       else if((HAL_IS_BIT_SET(RCC->CR, RCC_CR_HSIRDY)) && (srcclk == RCC_I2C4CLKSOURCE_HSI))
1013:Drivers/STM32G4xx_HAL_Driver/Src/stm32g4xx_hal_rcc_ex.c ****       {
1014:Drivers/STM32G4xx_HAL_Driver/Src/stm32g4xx_hal_rcc_ex.c ****         frequency = HSI_VALUE;
1015:Drivers/STM32G4xx_HAL_Driver/Src/stm32g4xx_hal_rcc_ex.c ****       }
1016:Drivers/STM32G4xx_HAL_Driver/Src/stm32g4xx_hal_rcc_ex.c ****       /* Clock not enabled for I2C4 */
1017:Drivers/STM32G4xx_HAL_Driver/Src/stm32g4xx_hal_rcc_ex.c ****       else
1018:Drivers/STM32G4xx_HAL_Driver/Src/stm32g4xx_hal_rcc_ex.c ****       {
ARM GAS  C:\Users\aniru.000\AppData\Local\Temp\ccGZAzIF.s 			page 36


1019:Drivers/STM32G4xx_HAL_Driver/Src/stm32g4xx_hal_rcc_ex.c ****         /* nothing to do: frequency already initialized to 0 */
1020:Drivers/STM32G4xx_HAL_Driver/Src/stm32g4xx_hal_rcc_ex.c ****       }
1021:Drivers/STM32G4xx_HAL_Driver/Src/stm32g4xx_hal_rcc_ex.c ****       break;
1022:Drivers/STM32G4xx_HAL_Driver/Src/stm32g4xx_hal_rcc_ex.c **** 
1023:Drivers/STM32G4xx_HAL_Driver/Src/stm32g4xx_hal_rcc_ex.c **** #endif /* I2C4 */
1024:Drivers/STM32G4xx_HAL_Driver/Src/stm32g4xx_hal_rcc_ex.c **** 
1025:Drivers/STM32G4xx_HAL_Driver/Src/stm32g4xx_hal_rcc_ex.c ****     case RCC_PERIPHCLK_LPTIM1:
1026:Drivers/STM32G4xx_HAL_Driver/Src/stm32g4xx_hal_rcc_ex.c ****       /* Get the current LPTIM1 source */
1027:Drivers/STM32G4xx_HAL_Driver/Src/stm32g4xx_hal_rcc_ex.c ****       srcclk = __HAL_RCC_GET_LPTIM1_SOURCE();
1028:Drivers/STM32G4xx_HAL_Driver/Src/stm32g4xx_hal_rcc_ex.c **** 
1029:Drivers/STM32G4xx_HAL_Driver/Src/stm32g4xx_hal_rcc_ex.c ****       if(srcclk == RCC_LPTIM1CLKSOURCE_PCLK1)
1030:Drivers/STM32G4xx_HAL_Driver/Src/stm32g4xx_hal_rcc_ex.c ****       {
1031:Drivers/STM32G4xx_HAL_Driver/Src/stm32g4xx_hal_rcc_ex.c ****         frequency = HAL_RCC_GetPCLK1Freq();
1032:Drivers/STM32G4xx_HAL_Driver/Src/stm32g4xx_hal_rcc_ex.c ****       }
1033:Drivers/STM32G4xx_HAL_Driver/Src/stm32g4xx_hal_rcc_ex.c ****       else if((HAL_IS_BIT_SET(RCC->CSR, RCC_CSR_LSIRDY)) && (srcclk == RCC_LPTIM1CLKSOURCE_LSI))
1034:Drivers/STM32G4xx_HAL_Driver/Src/stm32g4xx_hal_rcc_ex.c ****       {
1035:Drivers/STM32G4xx_HAL_Driver/Src/stm32g4xx_hal_rcc_ex.c ****         frequency = LSI_VALUE;
1036:Drivers/STM32G4xx_HAL_Driver/Src/stm32g4xx_hal_rcc_ex.c ****       }
1037:Drivers/STM32G4xx_HAL_Driver/Src/stm32g4xx_hal_rcc_ex.c ****       else if((HAL_IS_BIT_SET(RCC->CR, RCC_CR_HSIRDY)) && (srcclk == RCC_LPTIM1CLKSOURCE_HSI))
1038:Drivers/STM32G4xx_HAL_Driver/Src/stm32g4xx_hal_rcc_ex.c ****       {
1039:Drivers/STM32G4xx_HAL_Driver/Src/stm32g4xx_hal_rcc_ex.c ****         frequency = HSI_VALUE;
1040:Drivers/STM32G4xx_HAL_Driver/Src/stm32g4xx_hal_rcc_ex.c ****       }
1041:Drivers/STM32G4xx_HAL_Driver/Src/stm32g4xx_hal_rcc_ex.c ****       else if ((HAL_IS_BIT_SET(RCC->BDCR, RCC_BDCR_LSERDY)) && (srcclk == RCC_LPTIM1CLKSOURCE_LSE))
1042:Drivers/STM32G4xx_HAL_Driver/Src/stm32g4xx_hal_rcc_ex.c ****       {
1043:Drivers/STM32G4xx_HAL_Driver/Src/stm32g4xx_hal_rcc_ex.c ****         frequency = LSE_VALUE;
1044:Drivers/STM32G4xx_HAL_Driver/Src/stm32g4xx_hal_rcc_ex.c ****       }
1045:Drivers/STM32G4xx_HAL_Driver/Src/stm32g4xx_hal_rcc_ex.c ****       /* Clock not enabled for LPTIM1 */
1046:Drivers/STM32G4xx_HAL_Driver/Src/stm32g4xx_hal_rcc_ex.c ****       else
1047:Drivers/STM32G4xx_HAL_Driver/Src/stm32g4xx_hal_rcc_ex.c ****       {
1048:Drivers/STM32G4xx_HAL_Driver/Src/stm32g4xx_hal_rcc_ex.c ****         /* nothing to do: frequency already initialized to 0 */
1049:Drivers/STM32G4xx_HAL_Driver/Src/stm32g4xx_hal_rcc_ex.c ****       }
1050:Drivers/STM32G4xx_HAL_Driver/Src/stm32g4xx_hal_rcc_ex.c ****       break;
1051:Drivers/STM32G4xx_HAL_Driver/Src/stm32g4xx_hal_rcc_ex.c **** 
1052:Drivers/STM32G4xx_HAL_Driver/Src/stm32g4xx_hal_rcc_ex.c **** #if defined(SAI1)
1053:Drivers/STM32G4xx_HAL_Driver/Src/stm32g4xx_hal_rcc_ex.c **** 
1054:Drivers/STM32G4xx_HAL_Driver/Src/stm32g4xx_hal_rcc_ex.c ****     case RCC_PERIPHCLK_SAI1:
1055:Drivers/STM32G4xx_HAL_Driver/Src/stm32g4xx_hal_rcc_ex.c ****       /* Get the current SAI1 source */
1056:Drivers/STM32G4xx_HAL_Driver/Src/stm32g4xx_hal_rcc_ex.c ****       srcclk = __HAL_RCC_GET_SAI1_SOURCE();
1057:Drivers/STM32G4xx_HAL_Driver/Src/stm32g4xx_hal_rcc_ex.c **** 
1058:Drivers/STM32G4xx_HAL_Driver/Src/stm32g4xx_hal_rcc_ex.c ****       if(srcclk == RCC_SAI1CLKSOURCE_SYSCLK)
1059:Drivers/STM32G4xx_HAL_Driver/Src/stm32g4xx_hal_rcc_ex.c ****       {
1060:Drivers/STM32G4xx_HAL_Driver/Src/stm32g4xx_hal_rcc_ex.c ****         frequency = HAL_RCC_GetSysClockFreq();
1061:Drivers/STM32G4xx_HAL_Driver/Src/stm32g4xx_hal_rcc_ex.c ****       }
1062:Drivers/STM32G4xx_HAL_Driver/Src/stm32g4xx_hal_rcc_ex.c ****       else if(srcclk == RCC_SAI1CLKSOURCE_PLL)
1063:Drivers/STM32G4xx_HAL_Driver/Src/stm32g4xx_hal_rcc_ex.c ****       {
1064:Drivers/STM32G4xx_HAL_Driver/Src/stm32g4xx_hal_rcc_ex.c ****         if(__HAL_RCC_GET_PLLCLKOUT_CONFIG(RCC_PLL_48M1CLK) != 0U)
1065:Drivers/STM32G4xx_HAL_Driver/Src/stm32g4xx_hal_rcc_ex.c ****         {
1066:Drivers/STM32G4xx_HAL_Driver/Src/stm32g4xx_hal_rcc_ex.c ****           /* f(PLLQ) = f(VCO input) * PLLN / PLLQ */
1067:Drivers/STM32G4xx_HAL_Driver/Src/stm32g4xx_hal_rcc_ex.c ****           plln = READ_BIT(RCC->PLLCFGR, RCC_PLLCFGR_PLLN) >> RCC_PLLCFGR_PLLN_Pos;
1068:Drivers/STM32G4xx_HAL_Driver/Src/stm32g4xx_hal_rcc_ex.c ****           frequency = (pllvco * plln) / (((READ_BIT(RCC->PLLCFGR, RCC_PLLCFGR_PLLQ) >> RCC_PLLCFGR_
1069:Drivers/STM32G4xx_HAL_Driver/Src/stm32g4xx_hal_rcc_ex.c ****         }
1070:Drivers/STM32G4xx_HAL_Driver/Src/stm32g4xx_hal_rcc_ex.c ****       }
1071:Drivers/STM32G4xx_HAL_Driver/Src/stm32g4xx_hal_rcc_ex.c ****       else if(srcclk == RCC_SAI1CLKSOURCE_EXT)
1072:Drivers/STM32G4xx_HAL_Driver/Src/stm32g4xx_hal_rcc_ex.c ****       {
1073:Drivers/STM32G4xx_HAL_Driver/Src/stm32g4xx_hal_rcc_ex.c ****         /* External clock used.*/
1074:Drivers/STM32G4xx_HAL_Driver/Src/stm32g4xx_hal_rcc_ex.c ****         frequency = EXTERNAL_CLOCK_VALUE;
1075:Drivers/STM32G4xx_HAL_Driver/Src/stm32g4xx_hal_rcc_ex.c ****       }
ARM GAS  C:\Users\aniru.000\AppData\Local\Temp\ccGZAzIF.s 			page 37


1076:Drivers/STM32G4xx_HAL_Driver/Src/stm32g4xx_hal_rcc_ex.c ****       else if((HAL_IS_BIT_SET(RCC->CR, RCC_CR_HSIRDY)) && (srcclk == RCC_SAI1CLKSOURCE_HSI))
1077:Drivers/STM32G4xx_HAL_Driver/Src/stm32g4xx_hal_rcc_ex.c ****       {
1078:Drivers/STM32G4xx_HAL_Driver/Src/stm32g4xx_hal_rcc_ex.c ****         frequency = HSI_VALUE;
1079:Drivers/STM32G4xx_HAL_Driver/Src/stm32g4xx_hal_rcc_ex.c ****       }
1080:Drivers/STM32G4xx_HAL_Driver/Src/stm32g4xx_hal_rcc_ex.c ****       /* Clock not enabled for SAI1 */
1081:Drivers/STM32G4xx_HAL_Driver/Src/stm32g4xx_hal_rcc_ex.c ****       else
1082:Drivers/STM32G4xx_HAL_Driver/Src/stm32g4xx_hal_rcc_ex.c ****       {
1083:Drivers/STM32G4xx_HAL_Driver/Src/stm32g4xx_hal_rcc_ex.c ****         /* nothing to do: frequency already initialized to 0 */
1084:Drivers/STM32G4xx_HAL_Driver/Src/stm32g4xx_hal_rcc_ex.c ****       }
1085:Drivers/STM32G4xx_HAL_Driver/Src/stm32g4xx_hal_rcc_ex.c ****       break;
1086:Drivers/STM32G4xx_HAL_Driver/Src/stm32g4xx_hal_rcc_ex.c **** 
1087:Drivers/STM32G4xx_HAL_Driver/Src/stm32g4xx_hal_rcc_ex.c **** #endif /* SAI1 */
1088:Drivers/STM32G4xx_HAL_Driver/Src/stm32g4xx_hal_rcc_ex.c **** 
1089:Drivers/STM32G4xx_HAL_Driver/Src/stm32g4xx_hal_rcc_ex.c **** #if defined(SPI_I2S_SUPPORT)
1090:Drivers/STM32G4xx_HAL_Driver/Src/stm32g4xx_hal_rcc_ex.c ****     case RCC_PERIPHCLK_I2S:
1091:Drivers/STM32G4xx_HAL_Driver/Src/stm32g4xx_hal_rcc_ex.c ****       /* Get the current I2Sx source */
1092:Drivers/STM32G4xx_HAL_Driver/Src/stm32g4xx_hal_rcc_ex.c ****       srcclk = __HAL_RCC_GET_I2S_SOURCE();
1093:Drivers/STM32G4xx_HAL_Driver/Src/stm32g4xx_hal_rcc_ex.c **** 
1094:Drivers/STM32G4xx_HAL_Driver/Src/stm32g4xx_hal_rcc_ex.c ****       if(srcclk == RCC_I2SCLKSOURCE_SYSCLK)
1095:Drivers/STM32G4xx_HAL_Driver/Src/stm32g4xx_hal_rcc_ex.c ****       {
1096:Drivers/STM32G4xx_HAL_Driver/Src/stm32g4xx_hal_rcc_ex.c ****         frequency = HAL_RCC_GetSysClockFreq();
1097:Drivers/STM32G4xx_HAL_Driver/Src/stm32g4xx_hal_rcc_ex.c ****       }
1098:Drivers/STM32G4xx_HAL_Driver/Src/stm32g4xx_hal_rcc_ex.c ****       else if(srcclk == RCC_I2SCLKSOURCE_PLL)
1099:Drivers/STM32G4xx_HAL_Driver/Src/stm32g4xx_hal_rcc_ex.c ****       {
1100:Drivers/STM32G4xx_HAL_Driver/Src/stm32g4xx_hal_rcc_ex.c ****         if(__HAL_RCC_GET_PLLCLKOUT_CONFIG(RCC_PLL_48M1CLK) != 0U)
1101:Drivers/STM32G4xx_HAL_Driver/Src/stm32g4xx_hal_rcc_ex.c ****         {
1102:Drivers/STM32G4xx_HAL_Driver/Src/stm32g4xx_hal_rcc_ex.c ****           /* f(PLLQ) = f(VCO input) * PLLN / PLLQ */
1103:Drivers/STM32G4xx_HAL_Driver/Src/stm32g4xx_hal_rcc_ex.c ****           plln = READ_BIT(RCC->PLLCFGR, RCC_PLLCFGR_PLLN) >> RCC_PLLCFGR_PLLN_Pos;
1104:Drivers/STM32G4xx_HAL_Driver/Src/stm32g4xx_hal_rcc_ex.c ****           frequency = (pllvco * plln) / (((READ_BIT(RCC->PLLCFGR, RCC_PLLCFGR_PLLQ) >> RCC_PLLCFGR_
1105:Drivers/STM32G4xx_HAL_Driver/Src/stm32g4xx_hal_rcc_ex.c ****         }
1106:Drivers/STM32G4xx_HAL_Driver/Src/stm32g4xx_hal_rcc_ex.c ****       }
1107:Drivers/STM32G4xx_HAL_Driver/Src/stm32g4xx_hal_rcc_ex.c ****       else if(srcclk == RCC_I2SCLKSOURCE_EXT)
1108:Drivers/STM32G4xx_HAL_Driver/Src/stm32g4xx_hal_rcc_ex.c ****       {
1109:Drivers/STM32G4xx_HAL_Driver/Src/stm32g4xx_hal_rcc_ex.c ****         /* External clock used.*/
1110:Drivers/STM32G4xx_HAL_Driver/Src/stm32g4xx_hal_rcc_ex.c ****         frequency = EXTERNAL_CLOCK_VALUE;
1111:Drivers/STM32G4xx_HAL_Driver/Src/stm32g4xx_hal_rcc_ex.c ****       }      
1112:Drivers/STM32G4xx_HAL_Driver/Src/stm32g4xx_hal_rcc_ex.c ****       else if((HAL_IS_BIT_SET(RCC->CR, RCC_CR_HSIRDY)) && (srcclk == RCC_I2SCLKSOURCE_HSI))
1113:Drivers/STM32G4xx_HAL_Driver/Src/stm32g4xx_hal_rcc_ex.c ****       {
1114:Drivers/STM32G4xx_HAL_Driver/Src/stm32g4xx_hal_rcc_ex.c ****         frequency = HSI_VALUE;
1115:Drivers/STM32G4xx_HAL_Driver/Src/stm32g4xx_hal_rcc_ex.c ****       }
1116:Drivers/STM32G4xx_HAL_Driver/Src/stm32g4xx_hal_rcc_ex.c ****       /* Clock not enabled for I2S */
1117:Drivers/STM32G4xx_HAL_Driver/Src/stm32g4xx_hal_rcc_ex.c ****       else
1118:Drivers/STM32G4xx_HAL_Driver/Src/stm32g4xx_hal_rcc_ex.c ****       {
1119:Drivers/STM32G4xx_HAL_Driver/Src/stm32g4xx_hal_rcc_ex.c ****         /* nothing to do: frequency already initialized to 0 */
1120:Drivers/STM32G4xx_HAL_Driver/Src/stm32g4xx_hal_rcc_ex.c ****       }
1121:Drivers/STM32G4xx_HAL_Driver/Src/stm32g4xx_hal_rcc_ex.c ****       break;
1122:Drivers/STM32G4xx_HAL_Driver/Src/stm32g4xx_hal_rcc_ex.c **** #endif /* SPI_I2S_SUPPORT */
1123:Drivers/STM32G4xx_HAL_Driver/Src/stm32g4xx_hal_rcc_ex.c **** 
1124:Drivers/STM32G4xx_HAL_Driver/Src/stm32g4xx_hal_rcc_ex.c **** #if defined(FDCAN1)
1125:Drivers/STM32G4xx_HAL_Driver/Src/stm32g4xx_hal_rcc_ex.c ****     case RCC_PERIPHCLK_FDCAN:
1126:Drivers/STM32G4xx_HAL_Driver/Src/stm32g4xx_hal_rcc_ex.c ****       /* Get the current FDCANx source */
1127:Drivers/STM32G4xx_HAL_Driver/Src/stm32g4xx_hal_rcc_ex.c ****       srcclk = __HAL_RCC_GET_FDCAN_SOURCE();
1128:Drivers/STM32G4xx_HAL_Driver/Src/stm32g4xx_hal_rcc_ex.c **** 
1129:Drivers/STM32G4xx_HAL_Driver/Src/stm32g4xx_hal_rcc_ex.c ****       if(srcclk == RCC_FDCANCLKSOURCE_PCLK1)
1130:Drivers/STM32G4xx_HAL_Driver/Src/stm32g4xx_hal_rcc_ex.c ****       {
1131:Drivers/STM32G4xx_HAL_Driver/Src/stm32g4xx_hal_rcc_ex.c ****         frequency = HAL_RCC_GetPCLK1Freq();
1132:Drivers/STM32G4xx_HAL_Driver/Src/stm32g4xx_hal_rcc_ex.c ****       }
ARM GAS  C:\Users\aniru.000\AppData\Local\Temp\ccGZAzIF.s 			page 38


1133:Drivers/STM32G4xx_HAL_Driver/Src/stm32g4xx_hal_rcc_ex.c ****       else if(srcclk == RCC_FDCANCLKSOURCE_HSE)
1134:Drivers/STM32G4xx_HAL_Driver/Src/stm32g4xx_hal_rcc_ex.c ****       {
1135:Drivers/STM32G4xx_HAL_Driver/Src/stm32g4xx_hal_rcc_ex.c ****         frequency = HSE_VALUE;
1136:Drivers/STM32G4xx_HAL_Driver/Src/stm32g4xx_hal_rcc_ex.c ****       }
1137:Drivers/STM32G4xx_HAL_Driver/Src/stm32g4xx_hal_rcc_ex.c ****       else if(srcclk == RCC_FDCANCLKSOURCE_PLL)
1138:Drivers/STM32G4xx_HAL_Driver/Src/stm32g4xx_hal_rcc_ex.c ****       {
1139:Drivers/STM32G4xx_HAL_Driver/Src/stm32g4xx_hal_rcc_ex.c ****         if(__HAL_RCC_GET_PLLCLKOUT_CONFIG(RCC_PLL_48M1CLK) != 0U)
1140:Drivers/STM32G4xx_HAL_Driver/Src/stm32g4xx_hal_rcc_ex.c ****         {
1141:Drivers/STM32G4xx_HAL_Driver/Src/stm32g4xx_hal_rcc_ex.c ****           /* f(PLLQ) = f(VCO input) * PLLN / PLLQ */
1142:Drivers/STM32G4xx_HAL_Driver/Src/stm32g4xx_hal_rcc_ex.c ****           plln = READ_BIT(RCC->PLLCFGR, RCC_PLLCFGR_PLLN) >> RCC_PLLCFGR_PLLN_Pos;
1143:Drivers/STM32G4xx_HAL_Driver/Src/stm32g4xx_hal_rcc_ex.c ****           frequency = (pllvco * plln) / (((READ_BIT(RCC->PLLCFGR, RCC_PLLCFGR_PLLQ) >> RCC_PLLCFGR_
1144:Drivers/STM32G4xx_HAL_Driver/Src/stm32g4xx_hal_rcc_ex.c ****         }
1145:Drivers/STM32G4xx_HAL_Driver/Src/stm32g4xx_hal_rcc_ex.c ****       }
1146:Drivers/STM32G4xx_HAL_Driver/Src/stm32g4xx_hal_rcc_ex.c ****       /* Clock not enabled for FDCAN */
1147:Drivers/STM32G4xx_HAL_Driver/Src/stm32g4xx_hal_rcc_ex.c ****       else
1148:Drivers/STM32G4xx_HAL_Driver/Src/stm32g4xx_hal_rcc_ex.c ****       {
1149:Drivers/STM32G4xx_HAL_Driver/Src/stm32g4xx_hal_rcc_ex.c ****         /* nothing to do: frequency already initialized to 0 */
1150:Drivers/STM32G4xx_HAL_Driver/Src/stm32g4xx_hal_rcc_ex.c ****       }
1151:Drivers/STM32G4xx_HAL_Driver/Src/stm32g4xx_hal_rcc_ex.c ****       break;
1152:Drivers/STM32G4xx_HAL_Driver/Src/stm32g4xx_hal_rcc_ex.c **** #endif /* FDCAN1 */
1153:Drivers/STM32G4xx_HAL_Driver/Src/stm32g4xx_hal_rcc_ex.c ****     
1154:Drivers/STM32G4xx_HAL_Driver/Src/stm32g4xx_hal_rcc_ex.c **** #if defined(USB)
1155:Drivers/STM32G4xx_HAL_Driver/Src/stm32g4xx_hal_rcc_ex.c ****     
1156:Drivers/STM32G4xx_HAL_Driver/Src/stm32g4xx_hal_rcc_ex.c ****     case RCC_PERIPHCLK_USB:
1157:Drivers/STM32G4xx_HAL_Driver/Src/stm32g4xx_hal_rcc_ex.c ****       /* Get the current USB source */
1158:Drivers/STM32G4xx_HAL_Driver/Src/stm32g4xx_hal_rcc_ex.c ****       srcclk = __HAL_RCC_GET_USB_SOURCE();
1159:Drivers/STM32G4xx_HAL_Driver/Src/stm32g4xx_hal_rcc_ex.c ****       
1160:Drivers/STM32G4xx_HAL_Driver/Src/stm32g4xx_hal_rcc_ex.c ****       if(srcclk == RCC_USBCLKSOURCE_PLL)  /* PLL ? */
1161:Drivers/STM32G4xx_HAL_Driver/Src/stm32g4xx_hal_rcc_ex.c ****       {
1162:Drivers/STM32G4xx_HAL_Driver/Src/stm32g4xx_hal_rcc_ex.c ****         /* f(PLLQ) = f(VCO input) * PLLN / PLLQ */
1163:Drivers/STM32G4xx_HAL_Driver/Src/stm32g4xx_hal_rcc_ex.c ****         plln = READ_BIT(RCC->PLLCFGR, RCC_PLLCFGR_PLLN) >> RCC_PLLCFGR_PLLN_Pos;
1164:Drivers/STM32G4xx_HAL_Driver/Src/stm32g4xx_hal_rcc_ex.c ****         frequency = (pllvco * plln) / (((READ_BIT(RCC->PLLCFGR, RCC_PLLCFGR_PLLQ) >> RCC_PLLCFGR_PL
1165:Drivers/STM32G4xx_HAL_Driver/Src/stm32g4xx_hal_rcc_ex.c ****       }
1166:Drivers/STM32G4xx_HAL_Driver/Src/stm32g4xx_hal_rcc_ex.c ****       else if((HAL_IS_BIT_SET(RCC->CRRCR, RCC_CRRCR_HSI48RDY)) && (srcclk == RCC_USBCLKSOURCE_HSI48
1167:Drivers/STM32G4xx_HAL_Driver/Src/stm32g4xx_hal_rcc_ex.c ****       {
1168:Drivers/STM32G4xx_HAL_Driver/Src/stm32g4xx_hal_rcc_ex.c ****         frequency = HSI48_VALUE;
1169:Drivers/STM32G4xx_HAL_Driver/Src/stm32g4xx_hal_rcc_ex.c ****       }
1170:Drivers/STM32G4xx_HAL_Driver/Src/stm32g4xx_hal_rcc_ex.c ****       else /* No clock source */
1171:Drivers/STM32G4xx_HAL_Driver/Src/stm32g4xx_hal_rcc_ex.c ****       {
1172:Drivers/STM32G4xx_HAL_Driver/Src/stm32g4xx_hal_rcc_ex.c ****         /* nothing to do: frequency already initialized to 0 */
1173:Drivers/STM32G4xx_HAL_Driver/Src/stm32g4xx_hal_rcc_ex.c ****       }
1174:Drivers/STM32G4xx_HAL_Driver/Src/stm32g4xx_hal_rcc_ex.c ****       break;
1175:Drivers/STM32G4xx_HAL_Driver/Src/stm32g4xx_hal_rcc_ex.c ****       
1176:Drivers/STM32G4xx_HAL_Driver/Src/stm32g4xx_hal_rcc_ex.c **** #endif /* USB */
1177:Drivers/STM32G4xx_HAL_Driver/Src/stm32g4xx_hal_rcc_ex.c **** 
1178:Drivers/STM32G4xx_HAL_Driver/Src/stm32g4xx_hal_rcc_ex.c ****     case RCC_PERIPHCLK_RNG:
1179:Drivers/STM32G4xx_HAL_Driver/Src/stm32g4xx_hal_rcc_ex.c ****       /* Get the current RNG source */
1180:Drivers/STM32G4xx_HAL_Driver/Src/stm32g4xx_hal_rcc_ex.c ****       srcclk = __HAL_RCC_GET_RNG_SOURCE();
1181:Drivers/STM32G4xx_HAL_Driver/Src/stm32g4xx_hal_rcc_ex.c **** 
1182:Drivers/STM32G4xx_HAL_Driver/Src/stm32g4xx_hal_rcc_ex.c ****       if(srcclk == RCC_RNGCLKSOURCE_PLL)  /* PLL ? */
1183:Drivers/STM32G4xx_HAL_Driver/Src/stm32g4xx_hal_rcc_ex.c ****       {
1184:Drivers/STM32G4xx_HAL_Driver/Src/stm32g4xx_hal_rcc_ex.c ****         /* f(PLLQ) = f(VCO input) * PLLN / PLLQ */
1185:Drivers/STM32G4xx_HAL_Driver/Src/stm32g4xx_hal_rcc_ex.c ****         plln = READ_BIT(RCC->PLLCFGR, RCC_PLLCFGR_PLLN) >> RCC_PLLCFGR_PLLN_Pos;
1186:Drivers/STM32G4xx_HAL_Driver/Src/stm32g4xx_hal_rcc_ex.c ****         frequency = (pllvco * plln) / (((READ_BIT(RCC->PLLCFGR, RCC_PLLCFGR_PLLQ) >> RCC_PLLCFGR_PL
1187:Drivers/STM32G4xx_HAL_Driver/Src/stm32g4xx_hal_rcc_ex.c ****       }
1188:Drivers/STM32G4xx_HAL_Driver/Src/stm32g4xx_hal_rcc_ex.c ****       else if( (HAL_IS_BIT_SET(RCC->CRRCR, RCC_CRRCR_HSI48RDY)) && (srcclk == RCC_RNGCLKSOURCE_HSI4
1189:Drivers/STM32G4xx_HAL_Driver/Src/stm32g4xx_hal_rcc_ex.c ****       {
ARM GAS  C:\Users\aniru.000\AppData\Local\Temp\ccGZAzIF.s 			page 39


1190:Drivers/STM32G4xx_HAL_Driver/Src/stm32g4xx_hal_rcc_ex.c ****         frequency = HSI48_VALUE;
1191:Drivers/STM32G4xx_HAL_Driver/Src/stm32g4xx_hal_rcc_ex.c ****       }
1192:Drivers/STM32G4xx_HAL_Driver/Src/stm32g4xx_hal_rcc_ex.c ****       else /* No clock source */
1193:Drivers/STM32G4xx_HAL_Driver/Src/stm32g4xx_hal_rcc_ex.c ****       {
1194:Drivers/STM32G4xx_HAL_Driver/Src/stm32g4xx_hal_rcc_ex.c ****         /* nothing to do: frequency already initialized to 0 */
1195:Drivers/STM32G4xx_HAL_Driver/Src/stm32g4xx_hal_rcc_ex.c ****       }
1196:Drivers/STM32G4xx_HAL_Driver/Src/stm32g4xx_hal_rcc_ex.c ****       break;
1197:Drivers/STM32G4xx_HAL_Driver/Src/stm32g4xx_hal_rcc_ex.c **** 
1198:Drivers/STM32G4xx_HAL_Driver/Src/stm32g4xx_hal_rcc_ex.c ****     case RCC_PERIPHCLK_ADC12:
1199:Drivers/STM32G4xx_HAL_Driver/Src/stm32g4xx_hal_rcc_ex.c ****       /* Get the current ADC12 source */
1200:Drivers/STM32G4xx_HAL_Driver/Src/stm32g4xx_hal_rcc_ex.c ****       srcclk = __HAL_RCC_GET_ADC12_SOURCE();
1201:Drivers/STM32G4xx_HAL_Driver/Src/stm32g4xx_hal_rcc_ex.c ****       
1202:Drivers/STM32G4xx_HAL_Driver/Src/stm32g4xx_hal_rcc_ex.c ****       if(srcclk == RCC_ADC12CLKSOURCE_PLL)
1203:Drivers/STM32G4xx_HAL_Driver/Src/stm32g4xx_hal_rcc_ex.c ****       {
1204:Drivers/STM32G4xx_HAL_Driver/Src/stm32g4xx_hal_rcc_ex.c ****         if(__HAL_RCC_GET_PLLCLKOUT_CONFIG(RCC_PLL_ADCCLK) != 0U)
1205:Drivers/STM32G4xx_HAL_Driver/Src/stm32g4xx_hal_rcc_ex.c ****         {
1206:Drivers/STM32G4xx_HAL_Driver/Src/stm32g4xx_hal_rcc_ex.c ****           /* f(PLLP) = f(VCO input) * PLLN / PLLP */
1207:Drivers/STM32G4xx_HAL_Driver/Src/stm32g4xx_hal_rcc_ex.c ****           plln = READ_BIT(RCC->PLLCFGR, RCC_PLLCFGR_PLLN) >> RCC_PLLCFGR_PLLN_Pos;
1208:Drivers/STM32G4xx_HAL_Driver/Src/stm32g4xx_hal_rcc_ex.c ****           pllp = READ_BIT(RCC->PLLCFGR, RCC_PLLCFGR_PLLPDIV) >> RCC_PLLCFGR_PLLPDIV_Pos;
1209:Drivers/STM32G4xx_HAL_Driver/Src/stm32g4xx_hal_rcc_ex.c ****           if(pllp == 0U)
1210:Drivers/STM32G4xx_HAL_Driver/Src/stm32g4xx_hal_rcc_ex.c ****           {
1211:Drivers/STM32G4xx_HAL_Driver/Src/stm32g4xx_hal_rcc_ex.c ****             if(READ_BIT(RCC->PLLCFGR, RCC_PLLCFGR_PLLP) != 0U)
1212:Drivers/STM32G4xx_HAL_Driver/Src/stm32g4xx_hal_rcc_ex.c ****             {
1213:Drivers/STM32G4xx_HAL_Driver/Src/stm32g4xx_hal_rcc_ex.c ****               pllp = 17U;
1214:Drivers/STM32G4xx_HAL_Driver/Src/stm32g4xx_hal_rcc_ex.c ****             }
1215:Drivers/STM32G4xx_HAL_Driver/Src/stm32g4xx_hal_rcc_ex.c ****             else
1216:Drivers/STM32G4xx_HAL_Driver/Src/stm32g4xx_hal_rcc_ex.c ****             {
1217:Drivers/STM32G4xx_HAL_Driver/Src/stm32g4xx_hal_rcc_ex.c ****               pllp = 7U;
1218:Drivers/STM32G4xx_HAL_Driver/Src/stm32g4xx_hal_rcc_ex.c ****             }
1219:Drivers/STM32G4xx_HAL_Driver/Src/stm32g4xx_hal_rcc_ex.c ****           }
1220:Drivers/STM32G4xx_HAL_Driver/Src/stm32g4xx_hal_rcc_ex.c ****           frequency = (pllvco * plln) / pllp;
1221:Drivers/STM32G4xx_HAL_Driver/Src/stm32g4xx_hal_rcc_ex.c ****         }
1222:Drivers/STM32G4xx_HAL_Driver/Src/stm32g4xx_hal_rcc_ex.c ****       }
1223:Drivers/STM32G4xx_HAL_Driver/Src/stm32g4xx_hal_rcc_ex.c ****       else if(srcclk == RCC_ADC12CLKSOURCE_SYSCLK)
1224:Drivers/STM32G4xx_HAL_Driver/Src/stm32g4xx_hal_rcc_ex.c ****       {
1225:Drivers/STM32G4xx_HAL_Driver/Src/stm32g4xx_hal_rcc_ex.c ****         frequency = HAL_RCC_GetSysClockFreq();
1226:Drivers/STM32G4xx_HAL_Driver/Src/stm32g4xx_hal_rcc_ex.c ****       }
1227:Drivers/STM32G4xx_HAL_Driver/Src/stm32g4xx_hal_rcc_ex.c ****       /* Clock not enabled for ADC12 */
1228:Drivers/STM32G4xx_HAL_Driver/Src/stm32g4xx_hal_rcc_ex.c ****       else
1229:Drivers/STM32G4xx_HAL_Driver/Src/stm32g4xx_hal_rcc_ex.c ****       {
1230:Drivers/STM32G4xx_HAL_Driver/Src/stm32g4xx_hal_rcc_ex.c ****         /* nothing to do: frequency already initialized to 0 */
1231:Drivers/STM32G4xx_HAL_Driver/Src/stm32g4xx_hal_rcc_ex.c ****       }
1232:Drivers/STM32G4xx_HAL_Driver/Src/stm32g4xx_hal_rcc_ex.c ****       break;
1233:Drivers/STM32G4xx_HAL_Driver/Src/stm32g4xx_hal_rcc_ex.c **** 
1234:Drivers/STM32G4xx_HAL_Driver/Src/stm32g4xx_hal_rcc_ex.c **** #if defined(ADC345_COMMON)
1235:Drivers/STM32G4xx_HAL_Driver/Src/stm32g4xx_hal_rcc_ex.c ****     case RCC_PERIPHCLK_ADC345:
1236:Drivers/STM32G4xx_HAL_Driver/Src/stm32g4xx_hal_rcc_ex.c ****       /* Get the current ADC345 source */
1237:Drivers/STM32G4xx_HAL_Driver/Src/stm32g4xx_hal_rcc_ex.c ****       srcclk = __HAL_RCC_GET_ADC345_SOURCE();
1238:Drivers/STM32G4xx_HAL_Driver/Src/stm32g4xx_hal_rcc_ex.c ****       
1239:Drivers/STM32G4xx_HAL_Driver/Src/stm32g4xx_hal_rcc_ex.c ****       if(srcclk == RCC_ADC345CLKSOURCE_PLL)
1240:Drivers/STM32G4xx_HAL_Driver/Src/stm32g4xx_hal_rcc_ex.c ****       {
1241:Drivers/STM32G4xx_HAL_Driver/Src/stm32g4xx_hal_rcc_ex.c ****         if(__HAL_RCC_GET_PLLCLKOUT_CONFIG(RCC_PLL_ADCCLK) != 0U)
1242:Drivers/STM32G4xx_HAL_Driver/Src/stm32g4xx_hal_rcc_ex.c ****         {
1243:Drivers/STM32G4xx_HAL_Driver/Src/stm32g4xx_hal_rcc_ex.c ****           /* f(PLLP) = f(VCO input) * PLLN / PLLP */
1244:Drivers/STM32G4xx_HAL_Driver/Src/stm32g4xx_hal_rcc_ex.c ****           plln = READ_BIT(RCC->PLLCFGR, RCC_PLLCFGR_PLLN) >> RCC_PLLCFGR_PLLN_Pos;
1245:Drivers/STM32G4xx_HAL_Driver/Src/stm32g4xx_hal_rcc_ex.c ****           pllp = READ_BIT(RCC->PLLCFGR, RCC_PLLCFGR_PLLPDIV) >> RCC_PLLCFGR_PLLPDIV_Pos;
1246:Drivers/STM32G4xx_HAL_Driver/Src/stm32g4xx_hal_rcc_ex.c ****           if(pllp == 0U)
ARM GAS  C:\Users\aniru.000\AppData\Local\Temp\ccGZAzIF.s 			page 40


1247:Drivers/STM32G4xx_HAL_Driver/Src/stm32g4xx_hal_rcc_ex.c ****           {
1248:Drivers/STM32G4xx_HAL_Driver/Src/stm32g4xx_hal_rcc_ex.c ****             if(READ_BIT(RCC->PLLCFGR, RCC_PLLCFGR_PLLP) != 0U)
1249:Drivers/STM32G4xx_HAL_Driver/Src/stm32g4xx_hal_rcc_ex.c ****             {
1250:Drivers/STM32G4xx_HAL_Driver/Src/stm32g4xx_hal_rcc_ex.c ****               pllp = 17U;
1251:Drivers/STM32G4xx_HAL_Driver/Src/stm32g4xx_hal_rcc_ex.c ****             }
1252:Drivers/STM32G4xx_HAL_Driver/Src/stm32g4xx_hal_rcc_ex.c ****             else
1253:Drivers/STM32G4xx_HAL_Driver/Src/stm32g4xx_hal_rcc_ex.c ****             {
1254:Drivers/STM32G4xx_HAL_Driver/Src/stm32g4xx_hal_rcc_ex.c ****               pllp = 7U;
1255:Drivers/STM32G4xx_HAL_Driver/Src/stm32g4xx_hal_rcc_ex.c ****             }
1256:Drivers/STM32G4xx_HAL_Driver/Src/stm32g4xx_hal_rcc_ex.c ****           }
1257:Drivers/STM32G4xx_HAL_Driver/Src/stm32g4xx_hal_rcc_ex.c ****           frequency = (pllvco * plln) / pllp;
1258:Drivers/STM32G4xx_HAL_Driver/Src/stm32g4xx_hal_rcc_ex.c ****         }
1259:Drivers/STM32G4xx_HAL_Driver/Src/stm32g4xx_hal_rcc_ex.c ****       }
1260:Drivers/STM32G4xx_HAL_Driver/Src/stm32g4xx_hal_rcc_ex.c ****       else if(srcclk == RCC_ADC345CLKSOURCE_SYSCLK)
1261:Drivers/STM32G4xx_HAL_Driver/Src/stm32g4xx_hal_rcc_ex.c ****       {
1262:Drivers/STM32G4xx_HAL_Driver/Src/stm32g4xx_hal_rcc_ex.c ****         frequency = HAL_RCC_GetSysClockFreq();
1263:Drivers/STM32G4xx_HAL_Driver/Src/stm32g4xx_hal_rcc_ex.c ****       }
1264:Drivers/STM32G4xx_HAL_Driver/Src/stm32g4xx_hal_rcc_ex.c ****       /* Clock not enabled for ADC345 */
1265:Drivers/STM32G4xx_HAL_Driver/Src/stm32g4xx_hal_rcc_ex.c ****       else
1266:Drivers/STM32G4xx_HAL_Driver/Src/stm32g4xx_hal_rcc_ex.c ****       {
1267:Drivers/STM32G4xx_HAL_Driver/Src/stm32g4xx_hal_rcc_ex.c ****         /* nothing to do: frequency already initialized to 0 */
1268:Drivers/STM32G4xx_HAL_Driver/Src/stm32g4xx_hal_rcc_ex.c ****       }
1269:Drivers/STM32G4xx_HAL_Driver/Src/stm32g4xx_hal_rcc_ex.c ****       break;
1270:Drivers/STM32G4xx_HAL_Driver/Src/stm32g4xx_hal_rcc_ex.c **** #endif /* ADC345_COMMON */
1271:Drivers/STM32G4xx_HAL_Driver/Src/stm32g4xx_hal_rcc_ex.c **** 
1272:Drivers/STM32G4xx_HAL_Driver/Src/stm32g4xx_hal_rcc_ex.c **** #if defined(QUADSPI)
1273:Drivers/STM32G4xx_HAL_Driver/Src/stm32g4xx_hal_rcc_ex.c **** 
1274:Drivers/STM32G4xx_HAL_Driver/Src/stm32g4xx_hal_rcc_ex.c ****     case RCC_PERIPHCLK_QSPI:
1275:Drivers/STM32G4xx_HAL_Driver/Src/stm32g4xx_hal_rcc_ex.c ****       /* Get the current QSPI source */
1276:Drivers/STM32G4xx_HAL_Driver/Src/stm32g4xx_hal_rcc_ex.c ****       srcclk = __HAL_RCC_GET_QSPI_SOURCE();
1277:Drivers/STM32G4xx_HAL_Driver/Src/stm32g4xx_hal_rcc_ex.c ****       
1278:Drivers/STM32G4xx_HAL_Driver/Src/stm32g4xx_hal_rcc_ex.c ****       if(srcclk == RCC_QSPICLKSOURCE_PLL)  /* PLL ? */
1279:Drivers/STM32G4xx_HAL_Driver/Src/stm32g4xx_hal_rcc_ex.c ****       {
1280:Drivers/STM32G4xx_HAL_Driver/Src/stm32g4xx_hal_rcc_ex.c ****         /* f(PLLQ) = f(VCO input) * PLLN / PLLQ */
1281:Drivers/STM32G4xx_HAL_Driver/Src/stm32g4xx_hal_rcc_ex.c ****         plln = READ_BIT(RCC->PLLCFGR, RCC_PLLCFGR_PLLN) >> RCC_PLLCFGR_PLLN_Pos;
1282:Drivers/STM32G4xx_HAL_Driver/Src/stm32g4xx_hal_rcc_ex.c ****         frequency = (pllvco * plln) / (((READ_BIT(RCC->PLLCFGR, RCC_PLLCFGR_PLLQ) >> RCC_PLLCFGR_PL
1283:Drivers/STM32G4xx_HAL_Driver/Src/stm32g4xx_hal_rcc_ex.c ****       }
1284:Drivers/STM32G4xx_HAL_Driver/Src/stm32g4xx_hal_rcc_ex.c ****       else if(srcclk == RCC_QSPICLKSOURCE_HSI)
1285:Drivers/STM32G4xx_HAL_Driver/Src/stm32g4xx_hal_rcc_ex.c ****       {
1286:Drivers/STM32G4xx_HAL_Driver/Src/stm32g4xx_hal_rcc_ex.c ****         frequency = HSI_VALUE;
1287:Drivers/STM32G4xx_HAL_Driver/Src/stm32g4xx_hal_rcc_ex.c ****       }      
1288:Drivers/STM32G4xx_HAL_Driver/Src/stm32g4xx_hal_rcc_ex.c ****       else if(srcclk == RCC_QSPICLKSOURCE_SYSCLK)
1289:Drivers/STM32G4xx_HAL_Driver/Src/stm32g4xx_hal_rcc_ex.c ****       {
1290:Drivers/STM32G4xx_HAL_Driver/Src/stm32g4xx_hal_rcc_ex.c ****         frequency = HAL_RCC_GetSysClockFreq();
1291:Drivers/STM32G4xx_HAL_Driver/Src/stm32g4xx_hal_rcc_ex.c ****       }
1292:Drivers/STM32G4xx_HAL_Driver/Src/stm32g4xx_hal_rcc_ex.c ****       else /* No clock source */
1293:Drivers/STM32G4xx_HAL_Driver/Src/stm32g4xx_hal_rcc_ex.c ****       {
1294:Drivers/STM32G4xx_HAL_Driver/Src/stm32g4xx_hal_rcc_ex.c ****         /* nothing to do: frequency already initialized to 0 */
1295:Drivers/STM32G4xx_HAL_Driver/Src/stm32g4xx_hal_rcc_ex.c ****       }
1296:Drivers/STM32G4xx_HAL_Driver/Src/stm32g4xx_hal_rcc_ex.c ****       break;
1297:Drivers/STM32G4xx_HAL_Driver/Src/stm32g4xx_hal_rcc_ex.c **** 
1298:Drivers/STM32G4xx_HAL_Driver/Src/stm32g4xx_hal_rcc_ex.c **** #endif /* QUADSPI */
1299:Drivers/STM32G4xx_HAL_Driver/Src/stm32g4xx_hal_rcc_ex.c **** 
1300:Drivers/STM32G4xx_HAL_Driver/Src/stm32g4xx_hal_rcc_ex.c ****     default:
1301:Drivers/STM32G4xx_HAL_Driver/Src/stm32g4xx_hal_rcc_ex.c ****       break;
1302:Drivers/STM32G4xx_HAL_Driver/Src/stm32g4xx_hal_rcc_ex.c ****     }
1303:Drivers/STM32G4xx_HAL_Driver/Src/stm32g4xx_hal_rcc_ex.c ****   }
ARM GAS  C:\Users\aniru.000\AppData\Local\Temp\ccGZAzIF.s 			page 41


1304:Drivers/STM32G4xx_HAL_Driver/Src/stm32g4xx_hal_rcc_ex.c **** 
1305:Drivers/STM32G4xx_HAL_Driver/Src/stm32g4xx_hal_rcc_ex.c ****   return(frequency);
1306:Drivers/STM32G4xx_HAL_Driver/Src/stm32g4xx_hal_rcc_ex.c **** }
 940              		.loc 1 1306 1 view .LVU318
 941 00d4 08BD     		pop	{r3, pc}
 942              	.LVL39:
 943              	.L160:
 726:Drivers/STM32G4xx_HAL_Driver/Src/stm32g4xx_hal_rcc_ex.c ****       {
 944              		.loc 1 726 7 is_stmt 1 view .LVU319
 726:Drivers/STM32G4xx_HAL_Driver/Src/stm32g4xx_hal_rcc_ex.c ****       {
 945              		.loc 1 726 10 is_stmt 0 view .LVU320
 946 00d6 7B4B     		ldr	r3, .L202
 947 00d8 1A68     		ldr	r2, [r3]
 726:Drivers/STM32G4xx_HAL_Driver/Src/stm32g4xx_hal_rcc_ex.c ****       {
 948              		.loc 1 726 9 view .LVU321
 949 00da 12F48062 		ands	r2, r2, #1024
 950 00de A0D0     		beq	.L58
 728:Drivers/STM32G4xx_HAL_Driver/Src/stm32g4xx_hal_rcc_ex.c ****       }
 951              		.loc 1 728 16 view .LVU322
 952 00e0 794A     		ldr	r2, .L202+4
 953 00e2 9EE7     		b	.L58
 954              	.L161:
 737:Drivers/STM32G4xx_HAL_Driver/Src/stm32g4xx_hal_rcc_ex.c ****       {
 955              		.loc 1 737 7 is_stmt 1 view .LVU323
 737:Drivers/STM32G4xx_HAL_Driver/Src/stm32g4xx_hal_rcc_ex.c ****       {
 956              		.loc 1 737 10 is_stmt 0 view .LVU324
 957 00e4 774B     		ldr	r3, .L202
 958 00e6 1A68     		ldr	r2, [r3]
 737:Drivers/STM32G4xx_HAL_Driver/Src/stm32g4xx_hal_rcc_ex.c ****       {
 959              		.loc 1 737 9 view .LVU325
 960 00e8 12F40032 		ands	r2, r2, #131072
 961 00ec 99D0     		beq	.L58
 739:Drivers/STM32G4xx_HAL_Driver/Src/stm32g4xx_hal_rcc_ex.c ****       }
 962              		.loc 1 739 16 view .LVU326
 963 00ee 774A     		ldr	r2, .L202+8
 964 00f0 97E7     		b	.L58
 965              	.LVL40:
 966              	.L162:
 754:Drivers/STM32G4xx_HAL_Driver/Src/stm32g4xx_hal_rcc_ex.c ****     {
 967              		.loc 1 754 5 view .LVU327
 968 00f2 0020     		movs	r0, #0
 969              	.LVL41:
 754:Drivers/STM32G4xx_HAL_Driver/Src/stm32g4xx_hal_rcc_ex.c ****     {
 970              		.loc 1 754 5 view .LVU328
 971 00f4 EEE7     		b	.L52
 972              	.LVL42:
 973              	.L64:
 754:Drivers/STM32G4xx_HAL_Driver/Src/stm32g4xx_hal_rcc_ex.c ****     {
 974              		.loc 1 754 5 view .LVU329
 975 00f6 0828     		cmp	r0, #8
 976 00f8 1CD1     		bne	.L165
 843:Drivers/STM32G4xx_HAL_Driver/Src/stm32g4xx_hal_rcc_ex.c **** 
 977              		.loc 1 843 7 is_stmt 1 view .LVU330
 843:Drivers/STM32G4xx_HAL_Driver/Src/stm32g4xx_hal_rcc_ex.c **** 
 978              		.loc 1 843 16 is_stmt 0 view .LVU331
 979 00fa 724B     		ldr	r3, .L202
 980 00fc D3F88830 		ldr	r3, [r3, #136]
ARM GAS  C:\Users\aniru.000\AppData\Local\Temp\ccGZAzIF.s 			page 42


 981              	.LVL43:
 845:Drivers/STM32G4xx_HAL_Driver/Src/stm32g4xx_hal_rcc_ex.c ****       {
 982              		.loc 1 845 7 is_stmt 1 view .LVU332
 845:Drivers/STM32G4xx_HAL_Driver/Src/stm32g4xx_hal_rcc_ex.c ****       {
 983              		.loc 1 845 9 is_stmt 0 view .LVU333
 984 0100 13F0C003 		ands	r3, r3, #192
 985              	.LVL44:
 845:Drivers/STM32G4xx_HAL_Driver/Src/stm32g4xx_hal_rcc_ex.c ****       {
 986              		.loc 1 845 9 view .LVU334
 987 0104 00F00981 		beq	.L166
 849:Drivers/STM32G4xx_HAL_Driver/Src/stm32g4xx_hal_rcc_ex.c ****       {
 988              		.loc 1 849 12 is_stmt 1 view .LVU335
 849:Drivers/STM32G4xx_HAL_Driver/Src/stm32g4xx_hal_rcc_ex.c ****       {
 989              		.loc 1 849 14 is_stmt 0 view .LVU336
 990 0108 402B     		cmp	r3, #64
 991 010a 00F00981 		beq	.L167
 853:Drivers/STM32G4xx_HAL_Driver/Src/stm32g4xx_hal_rcc_ex.c ****       {
 992              		.loc 1 853 12 is_stmt 1 view .LVU337
 853:Drivers/STM32G4xx_HAL_Driver/Src/stm32g4xx_hal_rcc_ex.c ****       {
 993              		.loc 1 853 16 is_stmt 0 view .LVU338
 994 010e 6D4A     		ldr	r2, .L202
 995              	.LVL45:
 853:Drivers/STM32G4xx_HAL_Driver/Src/stm32g4xx_hal_rcc_ex.c ****       {
 996              		.loc 1 853 16 view .LVU339
 997 0110 1268     		ldr	r2, [r2]
 853:Drivers/STM32G4xx_HAL_Driver/Src/stm32g4xx_hal_rcc_ex.c ****       {
 998              		.loc 1 853 14 view .LVU340
 999 0112 12F4806F 		tst	r2, #1024
 1000 0116 02D0     		beq	.L94
 853:Drivers/STM32G4xx_HAL_Driver/Src/stm32g4xx_hal_rcc_ex.c ****       {
 1001              		.loc 1 853 56 discriminator 1 view .LVU341
 1002 0118 802B     		cmp	r3, #128
 1003 011a 00F0CA82 		beq	.L132
 1004              	.L94:
 857:Drivers/STM32G4xx_HAL_Driver/Src/stm32g4xx_hal_rcc_ex.c ****       {
 1005              		.loc 1 857 12 is_stmt 1 view .LVU342
 857:Drivers/STM32G4xx_HAL_Driver/Src/stm32g4xx_hal_rcc_ex.c ****       {
 1006              		.loc 1 857 16 is_stmt 0 view .LVU343
 1007 011e 694A     		ldr	r2, .L202
 1008 0120 D2F89000 		ldr	r0, [r2, #144]
 1009              	.LVL46:
 857:Drivers/STM32G4xx_HAL_Driver/Src/stm32g4xx_hal_rcc_ex.c ****       {
 1010              		.loc 1 857 14 view .LVU344
 1011 0124 10F00200 		ands	r0, r0, #2
 1012 0128 D4D0     		beq	.L52
 857:Drivers/STM32G4xx_HAL_Driver/Src/stm32g4xx_hal_rcc_ex.c ****       {
 1013              		.loc 1 857 60 discriminator 1 view .LVU345
 1014 012a C02B     		cmp	r3, #192
 1015 012c 00F0C382 		beq	.L133
 686:Drivers/STM32G4xx_HAL_Driver/Src/stm32g4xx_hal_rcc_ex.c ****   uint32_t srcclk;
 1016              		.loc 1 686 12 view .LVU346
 1017 0130 0020     		movs	r0, #0
 1018 0132 CFE7     		b	.L52
 1019              	.LVL47:
 1020              	.L165:
 754:Drivers/STM32G4xx_HAL_Driver/Src/stm32g4xx_hal_rcc_ex.c ****     {
 1021              		.loc 1 754 5 view .LVU347
ARM GAS  C:\Users\aniru.000\AppData\Local\Temp\ccGZAzIF.s 			page 43


 1022 0134 0020     		movs	r0, #0
 1023              	.LVL48:
 754:Drivers/STM32G4xx_HAL_Driver/Src/stm32g4xx_hal_rcc_ex.c ****     {
 1024              		.loc 1 754 5 view .LVU348
 1025 0136 CDE7     		b	.L52
 1026              	.LVL49:
 1027              	.L62:
 754:Drivers/STM32G4xx_HAL_Driver/Src/stm32g4xx_hal_rcc_ex.c ****     {
 1028              		.loc 1 754 5 view .LVU349
 1029 0138 8028     		cmp	r0, #128
 1030 013a 00F04481 		beq	.L68
 1031 013e 1CD8     		bhi	.L69
 1032 0140 2028     		cmp	r0, #32
 1033 0142 00F01581 		beq	.L70
 1034 0146 4028     		cmp	r0, #64
 1035 0148 15D1     		bne	.L168
 927:Drivers/STM32G4xx_HAL_Driver/Src/stm32g4xx_hal_rcc_ex.c **** 
 1036              		.loc 1 927 7 is_stmt 1 view .LVU350
 927:Drivers/STM32G4xx_HAL_Driver/Src/stm32g4xx_hal_rcc_ex.c **** 
 1037              		.loc 1 927 16 is_stmt 0 view .LVU351
 1038 014a 5E4B     		ldr	r3, .L202
 1039 014c D3F88830 		ldr	r3, [r3, #136]
 1040              	.LVL50:
 929:Drivers/STM32G4xx_HAL_Driver/Src/stm32g4xx_hal_rcc_ex.c ****       {
 1041              		.loc 1 929 7 is_stmt 1 view .LVU352
 929:Drivers/STM32G4xx_HAL_Driver/Src/stm32g4xx_hal_rcc_ex.c ****       {
 1042              		.loc 1 929 9 is_stmt 0 view .LVU353
 1043 0150 13F44053 		ands	r3, r3, #12288
 1044              	.LVL51:
 929:Drivers/STM32G4xx_HAL_Driver/Src/stm32g4xx_hal_rcc_ex.c ****       {
 1045              		.loc 1 929 9 view .LVU354
 1046 0154 00F03181 		beq	.L169
 933:Drivers/STM32G4xx_HAL_Driver/Src/stm32g4xx_hal_rcc_ex.c ****       {
 1047              		.loc 1 933 12 is_stmt 1 view .LVU355
 933:Drivers/STM32G4xx_HAL_Driver/Src/stm32g4xx_hal_rcc_ex.c ****       {
 1048              		.loc 1 933 14 is_stmt 0 view .LVU356
 1049 0158 B3F5805F 		cmp	r3, #4096
 1050 015c 00F03081 		beq	.L170
 937:Drivers/STM32G4xx_HAL_Driver/Src/stm32g4xx_hal_rcc_ex.c ****       {
 1051              		.loc 1 937 12 is_stmt 1 view .LVU357
 937:Drivers/STM32G4xx_HAL_Driver/Src/stm32g4xx_hal_rcc_ex.c ****       {
 1052              		.loc 1 937 16 is_stmt 0 view .LVU358
 1053 0160 584A     		ldr	r2, .L202
 1054              	.LVL52:
 937:Drivers/STM32G4xx_HAL_Driver/Src/stm32g4xx_hal_rcc_ex.c ****       {
 1055              		.loc 1 937 16 view .LVU359
 1056 0162 1068     		ldr	r0, [r2]
 1057              	.LVL53:
 937:Drivers/STM32G4xx_HAL_Driver/Src/stm32g4xx_hal_rcc_ex.c ****       {
 1058              		.loc 1 937 14 view .LVU360
 1059 0164 10F48060 		ands	r0, r0, #1024
 1060 0168 B4D0     		beq	.L52
 937:Drivers/STM32G4xx_HAL_Driver/Src/stm32g4xx_hal_rcc_ex.c ****       {
 1061              		.loc 1 937 56 discriminator 1 view .LVU361
 1062 016a B3F5005F 		cmp	r3, #8192
 1063 016e 00F0AF82 		beq	.L138
 686:Drivers/STM32G4xx_HAL_Driver/Src/stm32g4xx_hal_rcc_ex.c ****   uint32_t srcclk;
ARM GAS  C:\Users\aniru.000\AppData\Local\Temp\ccGZAzIF.s 			page 44


 1064              		.loc 1 686 12 view .LVU362
 1065 0172 0020     		movs	r0, #0
 1066 0174 AEE7     		b	.L52
 1067              	.LVL54:
 1068              	.L168:
 754:Drivers/STM32G4xx_HAL_Driver/Src/stm32g4xx_hal_rcc_ex.c ****     {
 1069              		.loc 1 754 5 view .LVU363
 1070 0176 0020     		movs	r0, #0
 1071              	.LVL55:
 754:Drivers/STM32G4xx_HAL_Driver/Src/stm32g4xx_hal_rcc_ex.c ****     {
 1072              		.loc 1 754 5 view .LVU364
 1073 0178 ACE7     		b	.L52
 1074              	.LVL56:
 1075              	.L69:
 754:Drivers/STM32G4xx_HAL_Driver/Src/stm32g4xx_hal_rcc_ex.c ****     {
 1076              		.loc 1 754 5 view .LVU365
 1077 017a B0F5807F 		cmp	r0, #256
 1078 017e 15D1     		bne	.L171
 975:Drivers/STM32G4xx_HAL_Driver/Src/stm32g4xx_hal_rcc_ex.c **** 
 1079              		.loc 1 975 7 is_stmt 1 view .LVU366
 975:Drivers/STM32G4xx_HAL_Driver/Src/stm32g4xx_hal_rcc_ex.c **** 
 1080              		.loc 1 975 16 is_stmt 0 view .LVU367
 1081 0180 504B     		ldr	r3, .L202
 1082 0182 D3F88830 		ldr	r3, [r3, #136]
 1083              	.LVL57:
 977:Drivers/STM32G4xx_HAL_Driver/Src/stm32g4xx_hal_rcc_ex.c ****       {
 1084              		.loc 1 977 7 is_stmt 1 view .LVU368
 977:Drivers/STM32G4xx_HAL_Driver/Src/stm32g4xx_hal_rcc_ex.c ****       {
 1085              		.loc 1 977 9 is_stmt 0 view .LVU369
 1086 0186 13F44033 		ands	r3, r3, #196608
 1087              	.LVL58:
 977:Drivers/STM32G4xx_HAL_Driver/Src/stm32g4xx_hal_rcc_ex.c ****       {
 1088              		.loc 1 977 9 view .LVU370
 1089 018a 00F03781 		beq	.L172
 981:Drivers/STM32G4xx_HAL_Driver/Src/stm32g4xx_hal_rcc_ex.c ****       {
 1090              		.loc 1 981 12 is_stmt 1 view .LVU371
 981:Drivers/STM32G4xx_HAL_Driver/Src/stm32g4xx_hal_rcc_ex.c ****       {
 1091              		.loc 1 981 14 is_stmt 0 view .LVU372
 1092 018e B3F5803F 		cmp	r3, #65536
 1093 0192 00F03681 		beq	.L173
 985:Drivers/STM32G4xx_HAL_Driver/Src/stm32g4xx_hal_rcc_ex.c ****       {
 1094              		.loc 1 985 12 is_stmt 1 view .LVU373
 985:Drivers/STM32G4xx_HAL_Driver/Src/stm32g4xx_hal_rcc_ex.c ****       {
 1095              		.loc 1 985 16 is_stmt 0 view .LVU374
 1096 0196 4B4A     		ldr	r2, .L202
 1097              	.LVL59:
 985:Drivers/STM32G4xx_HAL_Driver/Src/stm32g4xx_hal_rcc_ex.c ****       {
 1098              		.loc 1 985 16 view .LVU375
 1099 0198 1068     		ldr	r0, [r2]
 1100              	.LVL60:
 985:Drivers/STM32G4xx_HAL_Driver/Src/stm32g4xx_hal_rcc_ex.c ****       {
 1101              		.loc 1 985 14 view .LVU376
 1102 019a 10F48060 		ands	r0, r0, #1024
 1103 019e 99D0     		beq	.L52
 985:Drivers/STM32G4xx_HAL_Driver/Src/stm32g4xx_hal_rcc_ex.c ****       {
 1104              		.loc 1 985 56 discriminator 1 view .LVU377
 1105 01a0 B3F5003F 		cmp	r3, #131072
ARM GAS  C:\Users\aniru.000\AppData\Local\Temp\ccGZAzIF.s 			page 45


 1106 01a4 00F09882 		beq	.L140
 686:Drivers/STM32G4xx_HAL_Driver/Src/stm32g4xx_hal_rcc_ex.c ****   uint32_t srcclk;
 1107              		.loc 1 686 12 view .LVU378
 1108 01a8 0020     		movs	r0, #0
 1109 01aa 93E7     		b	.L52
 1110              	.LVL61:
 1111              	.L171:
 754:Drivers/STM32G4xx_HAL_Driver/Src/stm32g4xx_hal_rcc_ex.c ****     {
 1112              		.loc 1 754 5 view .LVU379
 1113 01ac 0020     		movs	r0, #0
 1114              	.LVL62:
 754:Drivers/STM32G4xx_HAL_Driver/Src/stm32g4xx_hal_rcc_ex.c ****     {
 1115              		.loc 1 754 5 view .LVU380
 1116 01ae 91E7     		b	.L52
 1117              	.LVL63:
 1118              	.L60:
 754:Drivers/STM32G4xx_HAL_Driver/Src/stm32g4xx_hal_rcc_ex.c ****     {
 1119              		.loc 1 754 5 view .LVU381
 1120 01b0 B0F5804F 		cmp	r0, #16384
 1121 01b4 00F0D681 		beq	.L73
 1122 01b8 42D8     		bhi	.L74
 1123 01ba B0F5805F 		cmp	r0, #4096
 1124 01be 00F09781 		beq	.L75
 1125 01c2 23D8     		bhi	.L76
 1126 01c4 B0F5806F 		cmp	r0, #1024
 1127 01c8 00F04781 		beq	.L77
 1128 01cc B0F5006F 		cmp	r0, #2048
 1129 01d0 1AD1     		bne	.L174
1092:Drivers/STM32G4xx_HAL_Driver/Src/stm32g4xx_hal_rcc_ex.c **** 
 1130              		.loc 1 1092 7 is_stmt 1 view .LVU382
1092:Drivers/STM32G4xx_HAL_Driver/Src/stm32g4xx_hal_rcc_ex.c **** 
 1131              		.loc 1 1092 16 is_stmt 0 view .LVU383
 1132 01d2 3C4B     		ldr	r3, .L202
 1133 01d4 D3F88830 		ldr	r3, [r3, #136]
 1134              	.LVL64:
1094:Drivers/STM32G4xx_HAL_Driver/Src/stm32g4xx_hal_rcc_ex.c ****       {
 1135              		.loc 1 1094 7 is_stmt 1 view .LVU384
1094:Drivers/STM32G4xx_HAL_Driver/Src/stm32g4xx_hal_rcc_ex.c ****       {
 1136              		.loc 1 1094 9 is_stmt 0 view .LVU385
 1137 01d8 13F44003 		ands	r3, r3, #12582912
 1138              	.LVL65:
1094:Drivers/STM32G4xx_HAL_Driver/Src/stm32g4xx_hal_rcc_ex.c ****       {
 1139              		.loc 1 1094 9 view .LVU386
 1140 01dc 00F06F81 		beq	.L175
1098:Drivers/STM32G4xx_HAL_Driver/Src/stm32g4xx_hal_rcc_ex.c ****       {
 1141              		.loc 1 1098 12 is_stmt 1 view .LVU387
1098:Drivers/STM32G4xx_HAL_Driver/Src/stm32g4xx_hal_rcc_ex.c ****       {
 1142              		.loc 1 1098 14 is_stmt 0 view .LVU388
 1143 01e0 B3F5800F 		cmp	r3, #4194304
 1144 01e4 00F06E81 		beq	.L176
1107:Drivers/STM32G4xx_HAL_Driver/Src/stm32g4xx_hal_rcc_ex.c ****       {
 1145              		.loc 1 1107 12 is_stmt 1 view .LVU389
1107:Drivers/STM32G4xx_HAL_Driver/Src/stm32g4xx_hal_rcc_ex.c ****       {
 1146              		.loc 1 1107 14 is_stmt 0 view .LVU390
 1147 01e8 B3F5000F 		cmp	r3, #8388608
 1148 01ec 00F08282 		beq	.L146
1112:Drivers/STM32G4xx_HAL_Driver/Src/stm32g4xx_hal_rcc_ex.c ****       {
ARM GAS  C:\Users\aniru.000\AppData\Local\Temp\ccGZAzIF.s 			page 46


 1149              		.loc 1 1112 12 is_stmt 1 view .LVU391
1112:Drivers/STM32G4xx_HAL_Driver/Src/stm32g4xx_hal_rcc_ex.c ****       {
 1150              		.loc 1 1112 16 is_stmt 0 view .LVU392
 1151 01f0 344A     		ldr	r2, .L202
 1152              	.LVL66:
1112:Drivers/STM32G4xx_HAL_Driver/Src/stm32g4xx_hal_rcc_ex.c ****       {
 1153              		.loc 1 1112 16 view .LVU393
 1154 01f2 1068     		ldr	r0, [r2]
 1155              	.LVL67:
1112:Drivers/STM32G4xx_HAL_Driver/Src/stm32g4xx_hal_rcc_ex.c ****       {
 1156              		.loc 1 1112 14 view .LVU394
 1157 01f4 10F48060 		ands	r0, r0, #1024
 1158 01f8 3FF46CAF 		beq	.L52
1112:Drivers/STM32G4xx_HAL_Driver/Src/stm32g4xx_hal_rcc_ex.c ****       {
 1159              		.loc 1 1112 56 discriminator 1 view .LVU395
 1160 01fc B3F5400F 		cmp	r3, #12582912
 1161 0200 00F07A82 		beq	.L147
 686:Drivers/STM32G4xx_HAL_Driver/Src/stm32g4xx_hal_rcc_ex.c ****   uint32_t srcclk;
 1162              		.loc 1 686 12 view .LVU396
 1163 0204 0020     		movs	r0, #0
 1164 0206 65E7     		b	.L52
 1165              	.LVL68:
 1166              	.L174:
 754:Drivers/STM32G4xx_HAL_Driver/Src/stm32g4xx_hal_rcc_ex.c ****     {
 1167              		.loc 1 754 5 view .LVU397
 1168 0208 0020     		movs	r0, #0
 1169              	.LVL69:
 754:Drivers/STM32G4xx_HAL_Driver/Src/stm32g4xx_hal_rcc_ex.c ****     {
 1170              		.loc 1 754 5 view .LVU398
 1171 020a 63E7     		b	.L52
 1172              	.LVL70:
 1173              	.L76:
 754:Drivers/STM32G4xx_HAL_Driver/Src/stm32g4xx_hal_rcc_ex.c ****     {
 1174              		.loc 1 754 5 view .LVU399
 1175 020c B0F5005F 		cmp	r0, #8192
 1176 0210 14D1     		bne	.L177
1158:Drivers/STM32G4xx_HAL_Driver/Src/stm32g4xx_hal_rcc_ex.c ****       
 1177              		.loc 1 1158 7 is_stmt 1 view .LVU400
1158:Drivers/STM32G4xx_HAL_Driver/Src/stm32g4xx_hal_rcc_ex.c ****       
 1178              		.loc 1 1158 16 is_stmt 0 view .LVU401
 1179 0212 2C4B     		ldr	r3, .L202
 1180 0214 D3F88830 		ldr	r3, [r3, #136]
1158:Drivers/STM32G4xx_HAL_Driver/Src/stm32g4xx_hal_rcc_ex.c ****       
 1181              		.loc 1 1158 14 view .LVU402
 1182 0218 03F04063 		and	r3, r3, #201326592
 1183              	.LVL71:
1160:Drivers/STM32G4xx_HAL_Driver/Src/stm32g4xx_hal_rcc_ex.c ****       {
 1184              		.loc 1 1160 7 is_stmt 1 view .LVU403
1160:Drivers/STM32G4xx_HAL_Driver/Src/stm32g4xx_hal_rcc_ex.c ****       {
 1185              		.loc 1 1160 9 is_stmt 0 view .LVU404
 1186 021c B3F1006F 		cmp	r3, #134217728
 1187 0220 00F08F81 		beq	.L178
1166:Drivers/STM32G4xx_HAL_Driver/Src/stm32g4xx_hal_rcc_ex.c ****       {
 1188              		.loc 1 1166 12 is_stmt 1 view .LVU405
1166:Drivers/STM32G4xx_HAL_Driver/Src/stm32g4xx_hal_rcc_ex.c ****       {
 1189              		.loc 1 1166 16 is_stmt 0 view .LVU406
 1190 0224 274A     		ldr	r2, .L202
ARM GAS  C:\Users\aniru.000\AppData\Local\Temp\ccGZAzIF.s 			page 47


 1191              	.LVL72:
1166:Drivers/STM32G4xx_HAL_Driver/Src/stm32g4xx_hal_rcc_ex.c ****       {
 1192              		.loc 1 1166 16 view .LVU407
 1193 0226 D2F89800 		ldr	r0, [r2, #152]
 1194              	.LVL73:
1166:Drivers/STM32G4xx_HAL_Driver/Src/stm32g4xx_hal_rcc_ex.c ****       {
 1195              		.loc 1 1166 14 view .LVU408
 1196 022a 10F00200 		ands	r0, r0, #2
 1197 022e 3FF451AF 		beq	.L52
1166:Drivers/STM32G4xx_HAL_Driver/Src/stm32g4xx_hal_rcc_ex.c ****       {
 1198              		.loc 1 1166 64 discriminator 1 view .LVU409
 1199 0232 002B     		cmp	r3, #0
 1200 0234 00F06482 		beq	.L150
 686:Drivers/STM32G4xx_HAL_Driver/Src/stm32g4xx_hal_rcc_ex.c ****   uint32_t srcclk;
 1201              		.loc 1 686 12 view .LVU410
 1202 0238 0020     		movs	r0, #0
 1203 023a 4BE7     		b	.L52
 1204              	.LVL74:
 1205              	.L177:
 754:Drivers/STM32G4xx_HAL_Driver/Src/stm32g4xx_hal_rcc_ex.c ****     {
 1206              		.loc 1 754 5 view .LVU411
 1207 023c 0020     		movs	r0, #0
 1208              	.LVL75:
 754:Drivers/STM32G4xx_HAL_Driver/Src/stm32g4xx_hal_rcc_ex.c ****     {
 1209              		.loc 1 754 5 view .LVU412
 1210 023e 49E7     		b	.L52
 1211              	.LVL76:
 1212              	.L74:
 754:Drivers/STM32G4xx_HAL_Driver/Src/stm32g4xx_hal_rcc_ex.c ****     {
 1213              		.loc 1 754 5 view .LVU413
 1214 0240 B0F5803F 		cmp	r0, #65536
 1215 0244 00F0D581 		beq	.L80
 1216 0248 B0F5802F 		cmp	r0, #262144
 1217 024c 00F0FB81 		beq	.L81
 1218 0250 B0F5004F 		cmp	r0, #32768
 1219 0254 0ED1     		bne	.L179
1200:Drivers/STM32G4xx_HAL_Driver/Src/stm32g4xx_hal_rcc_ex.c ****       
 1220              		.loc 1 1200 7 is_stmt 1 view .LVU414
1200:Drivers/STM32G4xx_HAL_Driver/Src/stm32g4xx_hal_rcc_ex.c ****       
 1221              		.loc 1 1200 16 is_stmt 0 view .LVU415
 1222 0256 1B4B     		ldr	r3, .L202
 1223 0258 D3F88830 		ldr	r3, [r3, #136]
1200:Drivers/STM32G4xx_HAL_Driver/Src/stm32g4xx_hal_rcc_ex.c ****       
 1224              		.loc 1 1200 14 view .LVU416
 1225 025c 03F04053 		and	r3, r3, #805306368
 1226              	.LVL77:
1202:Drivers/STM32G4xx_HAL_Driver/Src/stm32g4xx_hal_rcc_ex.c ****       {
 1227              		.loc 1 1202 7 is_stmt 1 view .LVU417
1202:Drivers/STM32G4xx_HAL_Driver/Src/stm32g4xx_hal_rcc_ex.c ****       {
 1228              		.loc 1 1202 9 is_stmt 0 view .LVU418
 1229 0260 B3F1805F 		cmp	r3, #268435456
 1230 0264 00F0A681 		beq	.L180
1223:Drivers/STM32G4xx_HAL_Driver/Src/stm32g4xx_hal_rcc_ex.c ****       {
 1231              		.loc 1 1223 12 is_stmt 1 view .LVU419
1223:Drivers/STM32G4xx_HAL_Driver/Src/stm32g4xx_hal_rcc_ex.c ****       {
 1232              		.loc 1 1223 14 is_stmt 0 view .LVU420
 1233 0268 B3F1005F 		cmp	r3, #536870912
ARM GAS  C:\Users\aniru.000\AppData\Local\Temp\ccGZAzIF.s 			page 48


 1234 026c 00F0BE81 		beq	.L181
 686:Drivers/STM32G4xx_HAL_Driver/Src/stm32g4xx_hal_rcc_ex.c ****   uint32_t srcclk;
 1235              		.loc 1 686 12 view .LVU421
 1236 0270 0020     		movs	r0, #0
 1237              	.LVL78:
 686:Drivers/STM32G4xx_HAL_Driver/Src/stm32g4xx_hal_rcc_ex.c ****   uint32_t srcclk;
 1238              		.loc 1 686 12 view .LVU422
 1239 0272 2FE7     		b	.L52
 1240              	.LVL79:
 1241              	.L179:
 754:Drivers/STM32G4xx_HAL_Driver/Src/stm32g4xx_hal_rcc_ex.c ****     {
 1242              		.loc 1 754 5 view .LVU423
 1243 0274 0020     		movs	r0, #0
 1244              	.LVL80:
 754:Drivers/STM32G4xx_HAL_Driver/Src/stm32g4xx_hal_rcc_ex.c ****     {
 1245              		.loc 1 754 5 view .LVU424
 1246 0276 2DE7     		b	.L52
 1247              	.LVL81:
 1248              	.L65:
 759:Drivers/STM32G4xx_HAL_Driver/Src/stm32g4xx_hal_rcc_ex.c **** 
 1249              		.loc 1 759 7 is_stmt 1 view .LVU425
 759:Drivers/STM32G4xx_HAL_Driver/Src/stm32g4xx_hal_rcc_ex.c **** 
 1250              		.loc 1 759 16 is_stmt 0 view .LVU426
 1251 0278 124B     		ldr	r3, .L202
 1252 027a D3F88830 		ldr	r3, [r3, #136]
 1253              	.LVL82:
 761:Drivers/STM32G4xx_HAL_Driver/Src/stm32g4xx_hal_rcc_ex.c ****       {
 1254              		.loc 1 761 7 is_stmt 1 view .LVU427
 761:Drivers/STM32G4xx_HAL_Driver/Src/stm32g4xx_hal_rcc_ex.c ****       {
 1255              		.loc 1 761 9 is_stmt 0 view .LVU428
 1256 027e 13F00303 		ands	r3, r3, #3
 1257              	.LVL83:
 761:Drivers/STM32G4xx_HAL_Driver/Src/stm32g4xx_hal_rcc_ex.c ****       {
 1258              		.loc 1 761 9 view .LVU429
 1259 0282 15D0     		beq	.L182
 765:Drivers/STM32G4xx_HAL_Driver/Src/stm32g4xx_hal_rcc_ex.c ****       {
 1260              		.loc 1 765 12 is_stmt 1 view .LVU430
 765:Drivers/STM32G4xx_HAL_Driver/Src/stm32g4xx_hal_rcc_ex.c ****       {
 1261              		.loc 1 765 14 is_stmt 0 view .LVU431
 1262 0284 012B     		cmp	r3, #1
 1263 0286 16D0     		beq	.L183
 769:Drivers/STM32G4xx_HAL_Driver/Src/stm32g4xx_hal_rcc_ex.c ****       {
 1264              		.loc 1 769 12 is_stmt 1 view .LVU432
 769:Drivers/STM32G4xx_HAL_Driver/Src/stm32g4xx_hal_rcc_ex.c ****       {
 1265              		.loc 1 769 16 is_stmt 0 view .LVU433
 1266 0288 0E4A     		ldr	r2, .L202
 1267              	.LVL84:
 769:Drivers/STM32G4xx_HAL_Driver/Src/stm32g4xx_hal_rcc_ex.c ****       {
 1268              		.loc 1 769 16 view .LVU434
 1269 028a 1268     		ldr	r2, [r2]
 769:Drivers/STM32G4xx_HAL_Driver/Src/stm32g4xx_hal_rcc_ex.c ****       {
 1270              		.loc 1 769 14 view .LVU435
 1271 028c 12F4806F 		tst	r2, #1024
 1272 0290 02D0     		beq	.L85
 769:Drivers/STM32G4xx_HAL_Driver/Src/stm32g4xx_hal_rcc_ex.c ****       {
 1273              		.loc 1 769 56 discriminator 1 view .LVU436
 1274 0292 022B     		cmp	r3, #2
ARM GAS  C:\Users\aniru.000\AppData\Local\Temp\ccGZAzIF.s 			page 49


 1275 0294 00F0FE81 		beq	.L126
 1276              	.L85:
 773:Drivers/STM32G4xx_HAL_Driver/Src/stm32g4xx_hal_rcc_ex.c ****       {
 1277              		.loc 1 773 12 is_stmt 1 view .LVU437
 773:Drivers/STM32G4xx_HAL_Driver/Src/stm32g4xx_hal_rcc_ex.c ****       {
 1278              		.loc 1 773 16 is_stmt 0 view .LVU438
 1279 0298 0A4A     		ldr	r2, .L202
 1280 029a D2F89000 		ldr	r0, [r2, #144]
 1281              	.LVL85:
 773:Drivers/STM32G4xx_HAL_Driver/Src/stm32g4xx_hal_rcc_ex.c ****       {
 1282              		.loc 1 773 14 view .LVU439
 1283 029e 10F00200 		ands	r0, r0, #2
 1284 02a2 3FF417AF 		beq	.L52
 773:Drivers/STM32G4xx_HAL_Driver/Src/stm32g4xx_hal_rcc_ex.c ****       {
 1285              		.loc 1 773 60 discriminator 1 view .LVU440
 1286 02a6 032B     		cmp	r3, #3
 1287 02a8 00F0F681 		beq	.L127
 686:Drivers/STM32G4xx_HAL_Driver/Src/stm32g4xx_hal_rcc_ex.c ****   uint32_t srcclk;
 1288              		.loc 1 686 12 view .LVU441
 1289 02ac 0020     		movs	r0, #0
 1290 02ae 11E7     		b	.L52
 1291              	.LVL86:
 1292              	.L182:
 763:Drivers/STM32G4xx_HAL_Driver/Src/stm32g4xx_hal_rcc_ex.c ****       }
 1293              		.loc 1 763 9 is_stmt 1 view .LVU442
 763:Drivers/STM32G4xx_HAL_Driver/Src/stm32g4xx_hal_rcc_ex.c ****       }
 1294              		.loc 1 763 21 is_stmt 0 view .LVU443
 1295 02b0 FFF7FEFF 		bl	HAL_RCC_GetPCLK2Freq
 1296              	.LVL87:
 763:Drivers/STM32G4xx_HAL_Driver/Src/stm32g4xx_hal_rcc_ex.c ****       }
 1297              		.loc 1 763 21 view .LVU444
 1298 02b4 0EE7     		b	.L52
 1299              	.LVL88:
 1300              	.L183:
 767:Drivers/STM32G4xx_HAL_Driver/Src/stm32g4xx_hal_rcc_ex.c ****       }
 1301              		.loc 1 767 9 is_stmt 1 view .LVU445
 767:Drivers/STM32G4xx_HAL_Driver/Src/stm32g4xx_hal_rcc_ex.c ****       }
 1302              		.loc 1 767 21 is_stmt 0 view .LVU446
 1303 02b6 FFF7FEFF 		bl	HAL_RCC_GetSysClockFreq
 1304              	.LVL89:
 767:Drivers/STM32G4xx_HAL_Driver/Src/stm32g4xx_hal_rcc_ex.c ****       }
 1305              		.loc 1 767 21 view .LVU447
 1306 02ba 0BE7     		b	.L52
 1307              	.LVL90:
 1308              	.L163:
 790:Drivers/STM32G4xx_HAL_Driver/Src/stm32g4xx_hal_rcc_ex.c ****       }
 1309              		.loc 1 790 9 is_stmt 1 view .LVU448
 790:Drivers/STM32G4xx_HAL_Driver/Src/stm32g4xx_hal_rcc_ex.c ****       }
 1310              		.loc 1 790 21 is_stmt 0 view .LVU449
 1311 02bc FFF7FEFF 		bl	HAL_RCC_GetPCLK1Freq
 1312              	.LVL91:
 790:Drivers/STM32G4xx_HAL_Driver/Src/stm32g4xx_hal_rcc_ex.c ****       }
 1313              		.loc 1 790 21 view .LVU450
 1314 02c0 08E7     		b	.L52
 1315              	.L203:
 1316 02c2 00BF     		.align	2
 1317              	.L202:
ARM GAS  C:\Users\aniru.000\AppData\Local\Temp\ccGZAzIF.s 			page 50


 1318 02c4 00100240 		.word	1073876992
 1319 02c8 0024F400 		.word	16000000
 1320 02cc 00127A00 		.word	8000000
 1321              	.LVL92:
 1322              	.L164:
 794:Drivers/STM32G4xx_HAL_Driver/Src/stm32g4xx_hal_rcc_ex.c ****       }
 1323              		.loc 1 794 9 is_stmt 1 view .LVU451
 794:Drivers/STM32G4xx_HAL_Driver/Src/stm32g4xx_hal_rcc_ex.c ****       }
 1324              		.loc 1 794 21 is_stmt 0 view .LVU452
 1325 02d0 FFF7FEFF 		bl	HAL_RCC_GetSysClockFreq
 1326              	.LVL93:
 794:Drivers/STM32G4xx_HAL_Driver/Src/stm32g4xx_hal_rcc_ex.c ****       }
 1327              		.loc 1 794 21 view .LVU453
 1328 02d4 FEE6     		b	.L52
 1329              	.LVL94:
 1330              	.L63:
 814:Drivers/STM32G4xx_HAL_Driver/Src/stm32g4xx_hal_rcc_ex.c **** 
 1331              		.loc 1 814 7 is_stmt 1 view .LVU454
 814:Drivers/STM32G4xx_HAL_Driver/Src/stm32g4xx_hal_rcc_ex.c **** 
 1332              		.loc 1 814 16 is_stmt 0 view .LVU455
 1333 02d6 B64B     		ldr	r3, .L204
 1334 02d8 D3F88830 		ldr	r3, [r3, #136]
 1335              	.LVL95:
 816:Drivers/STM32G4xx_HAL_Driver/Src/stm32g4xx_hal_rcc_ex.c ****       {
 1336              		.loc 1 816 7 is_stmt 1 view .LVU456
 816:Drivers/STM32G4xx_HAL_Driver/Src/stm32g4xx_hal_rcc_ex.c ****       {
 1337              		.loc 1 816 9 is_stmt 0 view .LVU457
 1338 02dc 13F03003 		ands	r3, r3, #48
 1339              	.LVL96:
 816:Drivers/STM32G4xx_HAL_Driver/Src/stm32g4xx_hal_rcc_ex.c ****       {
 1340              		.loc 1 816 9 view .LVU458
 1341 02e0 15D0     		beq	.L184
 820:Drivers/STM32G4xx_HAL_Driver/Src/stm32g4xx_hal_rcc_ex.c ****       {
 1342              		.loc 1 820 12 is_stmt 1 view .LVU459
 820:Drivers/STM32G4xx_HAL_Driver/Src/stm32g4xx_hal_rcc_ex.c ****       {
 1343              		.loc 1 820 14 is_stmt 0 view .LVU460
 1344 02e2 102B     		cmp	r3, #16
 1345 02e4 16D0     		beq	.L185
 824:Drivers/STM32G4xx_HAL_Driver/Src/stm32g4xx_hal_rcc_ex.c ****       {
 1346              		.loc 1 824 12 is_stmt 1 view .LVU461
 824:Drivers/STM32G4xx_HAL_Driver/Src/stm32g4xx_hal_rcc_ex.c ****       {
 1347              		.loc 1 824 16 is_stmt 0 view .LVU462
 1348 02e6 B24A     		ldr	r2, .L204
 1349              	.LVL97:
 824:Drivers/STM32G4xx_HAL_Driver/Src/stm32g4xx_hal_rcc_ex.c ****       {
 1350              		.loc 1 824 16 view .LVU463
 1351 02e8 1268     		ldr	r2, [r2]
 824:Drivers/STM32G4xx_HAL_Driver/Src/stm32g4xx_hal_rcc_ex.c ****       {
 1352              		.loc 1 824 14 view .LVU464
 1353 02ea 12F4806F 		tst	r2, #1024
 1354 02ee 02D0     		beq	.L91
 824:Drivers/STM32G4xx_HAL_Driver/Src/stm32g4xx_hal_rcc_ex.c ****       {
 1355              		.loc 1 824 56 discriminator 1 view .LVU465
 1356 02f0 202B     		cmp	r3, #32
 1357 02f2 00F0D981 		beq	.L130
 1358              	.L91:
 828:Drivers/STM32G4xx_HAL_Driver/Src/stm32g4xx_hal_rcc_ex.c ****       {
ARM GAS  C:\Users\aniru.000\AppData\Local\Temp\ccGZAzIF.s 			page 51


 1359              		.loc 1 828 12 is_stmt 1 view .LVU466
 828:Drivers/STM32G4xx_HAL_Driver/Src/stm32g4xx_hal_rcc_ex.c ****       {
 1360              		.loc 1 828 16 is_stmt 0 view .LVU467
 1361 02f6 AE4A     		ldr	r2, .L204
 1362 02f8 D2F89000 		ldr	r0, [r2, #144]
 1363              	.LVL98:
 828:Drivers/STM32G4xx_HAL_Driver/Src/stm32g4xx_hal_rcc_ex.c ****       {
 1364              		.loc 1 828 14 view .LVU468
 1365 02fc 10F00200 		ands	r0, r0, #2
 1366 0300 3FF4E8AE 		beq	.L52
 828:Drivers/STM32G4xx_HAL_Driver/Src/stm32g4xx_hal_rcc_ex.c ****       {
 1367              		.loc 1 828 60 discriminator 1 view .LVU469
 1368 0304 302B     		cmp	r3, #48
 1369 0306 00F0D181 		beq	.L131
 686:Drivers/STM32G4xx_HAL_Driver/Src/stm32g4xx_hal_rcc_ex.c ****   uint32_t srcclk;
 1370              		.loc 1 686 12 view .LVU470
 1371 030a 0020     		movs	r0, #0
 1372 030c E2E6     		b	.L52
 1373              	.LVL99:
 1374              	.L184:
 818:Drivers/STM32G4xx_HAL_Driver/Src/stm32g4xx_hal_rcc_ex.c ****       }
 1375              		.loc 1 818 9 is_stmt 1 view .LVU471
 818:Drivers/STM32G4xx_HAL_Driver/Src/stm32g4xx_hal_rcc_ex.c ****       }
 1376              		.loc 1 818 21 is_stmt 0 view .LVU472
 1377 030e FFF7FEFF 		bl	HAL_RCC_GetPCLK1Freq
 1378              	.LVL100:
 818:Drivers/STM32G4xx_HAL_Driver/Src/stm32g4xx_hal_rcc_ex.c ****       }
 1379              		.loc 1 818 21 view .LVU473
 1380 0312 DFE6     		b	.L52
 1381              	.LVL101:
 1382              	.L185:
 822:Drivers/STM32G4xx_HAL_Driver/Src/stm32g4xx_hal_rcc_ex.c ****       }
 1383              		.loc 1 822 9 is_stmt 1 view .LVU474
 822:Drivers/STM32G4xx_HAL_Driver/Src/stm32g4xx_hal_rcc_ex.c ****       }
 1384              		.loc 1 822 21 is_stmt 0 view .LVU475
 1385 0314 FFF7FEFF 		bl	HAL_RCC_GetSysClockFreq
 1386              	.LVL102:
 822:Drivers/STM32G4xx_HAL_Driver/Src/stm32g4xx_hal_rcc_ex.c ****       }
 1387              		.loc 1 822 21 view .LVU476
 1388 0318 DCE6     		b	.L52
 1389              	.LVL103:
 1390              	.L166:
 847:Drivers/STM32G4xx_HAL_Driver/Src/stm32g4xx_hal_rcc_ex.c ****       }
 1391              		.loc 1 847 9 is_stmt 1 view .LVU477
 847:Drivers/STM32G4xx_HAL_Driver/Src/stm32g4xx_hal_rcc_ex.c ****       }
 1392              		.loc 1 847 21 is_stmt 0 view .LVU478
 1393 031a FFF7FEFF 		bl	HAL_RCC_GetPCLK1Freq
 1394              	.LVL104:
 847:Drivers/STM32G4xx_HAL_Driver/Src/stm32g4xx_hal_rcc_ex.c ****       }
 1395              		.loc 1 847 21 view .LVU479
 1396 031e D9E6     		b	.L52
 1397              	.LVL105:
 1398              	.L167:
 851:Drivers/STM32G4xx_HAL_Driver/Src/stm32g4xx_hal_rcc_ex.c ****       }
 1399              		.loc 1 851 9 is_stmt 1 view .LVU480
 851:Drivers/STM32G4xx_HAL_Driver/Src/stm32g4xx_hal_rcc_ex.c ****       }
 1400              		.loc 1 851 21 is_stmt 0 view .LVU481
ARM GAS  C:\Users\aniru.000\AppData\Local\Temp\ccGZAzIF.s 			page 52


 1401 0320 FFF7FEFF 		bl	HAL_RCC_GetSysClockFreq
 1402              	.LVL106:
 851:Drivers/STM32G4xx_HAL_Driver/Src/stm32g4xx_hal_rcc_ex.c ****       }
 1403              		.loc 1 851 21 view .LVU482
 1404 0324 D6E6     		b	.L52
 1405              	.LVL107:
 1406              	.L61:
 872:Drivers/STM32G4xx_HAL_Driver/Src/stm32g4xx_hal_rcc_ex.c **** 
 1407              		.loc 1 872 7 is_stmt 1 view .LVU483
 872:Drivers/STM32G4xx_HAL_Driver/Src/stm32g4xx_hal_rcc_ex.c **** 
 1408              		.loc 1 872 16 is_stmt 0 view .LVU484
 1409 0326 A24B     		ldr	r3, .L204
 1410 0328 D3F88830 		ldr	r3, [r3, #136]
 1411              	.LVL108:
 874:Drivers/STM32G4xx_HAL_Driver/Src/stm32g4xx_hal_rcc_ex.c ****       {
 1412              		.loc 1 874 7 is_stmt 1 view .LVU485
 874:Drivers/STM32G4xx_HAL_Driver/Src/stm32g4xx_hal_rcc_ex.c ****       {
 1413              		.loc 1 874 9 is_stmt 0 view .LVU486
 1414 032c 13F44073 		ands	r3, r3, #768
 1415              	.LVL109:
 874:Drivers/STM32G4xx_HAL_Driver/Src/stm32g4xx_hal_rcc_ex.c ****       {
 1416              		.loc 1 874 9 view .LVU487
 1417 0330 18D0     		beq	.L186
 878:Drivers/STM32G4xx_HAL_Driver/Src/stm32g4xx_hal_rcc_ex.c ****       {
 1418              		.loc 1 878 12 is_stmt 1 view .LVU488
 878:Drivers/STM32G4xx_HAL_Driver/Src/stm32g4xx_hal_rcc_ex.c ****       {
 1419              		.loc 1 878 14 is_stmt 0 view .LVU489
 1420 0332 B3F5807F 		cmp	r3, #256
 1421 0336 18D0     		beq	.L187
 882:Drivers/STM32G4xx_HAL_Driver/Src/stm32g4xx_hal_rcc_ex.c ****       {
 1422              		.loc 1 882 12 is_stmt 1 view .LVU490
 882:Drivers/STM32G4xx_HAL_Driver/Src/stm32g4xx_hal_rcc_ex.c ****       {
 1423              		.loc 1 882 16 is_stmt 0 view .LVU491
 1424 0338 9D4A     		ldr	r2, .L204
 1425              	.LVL110:
 882:Drivers/STM32G4xx_HAL_Driver/Src/stm32g4xx_hal_rcc_ex.c ****       {
 1426              		.loc 1 882 16 view .LVU492
 1427 033a 1268     		ldr	r2, [r2]
 882:Drivers/STM32G4xx_HAL_Driver/Src/stm32g4xx_hal_rcc_ex.c ****       {
 1428              		.loc 1 882 14 view .LVU493
 1429 033c 12F4806F 		tst	r2, #1024
 1430 0340 03D0     		beq	.L97
 882:Drivers/STM32G4xx_HAL_Driver/Src/stm32g4xx_hal_rcc_ex.c ****       {
 1431              		.loc 1 882 56 discriminator 1 view .LVU494
 1432 0342 B3F5007F 		cmp	r3, #512
 1433 0346 00F0B981 		beq	.L134
 1434              	.L97:
 886:Drivers/STM32G4xx_HAL_Driver/Src/stm32g4xx_hal_rcc_ex.c ****       {
 1435              		.loc 1 886 12 is_stmt 1 view .LVU495
 886:Drivers/STM32G4xx_HAL_Driver/Src/stm32g4xx_hal_rcc_ex.c ****       {
 1436              		.loc 1 886 16 is_stmt 0 view .LVU496
 1437 034a 994A     		ldr	r2, .L204
 1438 034c D2F89000 		ldr	r0, [r2, #144]
 1439              	.LVL111:
 886:Drivers/STM32G4xx_HAL_Driver/Src/stm32g4xx_hal_rcc_ex.c ****       {
 1440              		.loc 1 886 14 view .LVU497
 1441 0350 10F00200 		ands	r0, r0, #2
ARM GAS  C:\Users\aniru.000\AppData\Local\Temp\ccGZAzIF.s 			page 53


 1442 0354 3FF4BEAE 		beq	.L52
 886:Drivers/STM32G4xx_HAL_Driver/Src/stm32g4xx_hal_rcc_ex.c ****       {
 1443              		.loc 1 886 60 discriminator 1 view .LVU498
 1444 0358 B3F5407F 		cmp	r3, #768
 1445 035c 00F0B081 		beq	.L135
 686:Drivers/STM32G4xx_HAL_Driver/Src/stm32g4xx_hal_rcc_ex.c ****   uint32_t srcclk;
 1446              		.loc 1 686 12 view .LVU499
 1447 0360 0020     		movs	r0, #0
 1448 0362 B7E6     		b	.L52
 1449              	.LVL112:
 1450              	.L186:
 876:Drivers/STM32G4xx_HAL_Driver/Src/stm32g4xx_hal_rcc_ex.c ****       }
 1451              		.loc 1 876 9 is_stmt 1 view .LVU500
 876:Drivers/STM32G4xx_HAL_Driver/Src/stm32g4xx_hal_rcc_ex.c ****       }
 1452              		.loc 1 876 21 is_stmt 0 view .LVU501
 1453 0364 FFF7FEFF 		bl	HAL_RCC_GetPCLK1Freq
 1454              	.LVL113:
 876:Drivers/STM32G4xx_HAL_Driver/Src/stm32g4xx_hal_rcc_ex.c ****       }
 1455              		.loc 1 876 21 view .LVU502
 1456 0368 B4E6     		b	.L52
 1457              	.LVL114:
 1458              	.L187:
 880:Drivers/STM32G4xx_HAL_Driver/Src/stm32g4xx_hal_rcc_ex.c ****       }
 1459              		.loc 1 880 9 is_stmt 1 view .LVU503
 880:Drivers/STM32G4xx_HAL_Driver/Src/stm32g4xx_hal_rcc_ex.c ****       }
 1460              		.loc 1 880 21 is_stmt 0 view .LVU504
 1461 036a FFF7FEFF 		bl	HAL_RCC_GetSysClockFreq
 1462              	.LVL115:
 880:Drivers/STM32G4xx_HAL_Driver/Src/stm32g4xx_hal_rcc_ex.c ****       }
 1463              		.loc 1 880 21 view .LVU505
 1464 036e B1E6     		b	.L52
 1465              	.LVL116:
 1466              	.L70:
 900:Drivers/STM32G4xx_HAL_Driver/Src/stm32g4xx_hal_rcc_ex.c **** 
 1467              		.loc 1 900 7 is_stmt 1 view .LVU506
 900:Drivers/STM32G4xx_HAL_Driver/Src/stm32g4xx_hal_rcc_ex.c **** 
 1468              		.loc 1 900 16 is_stmt 0 view .LVU507
 1469 0370 8F4B     		ldr	r3, .L204
 1470 0372 D3F88830 		ldr	r3, [r3, #136]
 1471              	.LVL117:
 902:Drivers/STM32G4xx_HAL_Driver/Src/stm32g4xx_hal_rcc_ex.c ****       {
 1472              		.loc 1 902 7 is_stmt 1 view .LVU508
 902:Drivers/STM32G4xx_HAL_Driver/Src/stm32g4xx_hal_rcc_ex.c ****       {
 1473              		.loc 1 902 9 is_stmt 0 view .LVU509
 1474 0376 13F44063 		ands	r3, r3, #3072
 1475              	.LVL118:
 902:Drivers/STM32G4xx_HAL_Driver/Src/stm32g4xx_hal_rcc_ex.c ****       {
 1476              		.loc 1 902 9 view .LVU510
 1477 037a 18D0     		beq	.L188
 906:Drivers/STM32G4xx_HAL_Driver/Src/stm32g4xx_hal_rcc_ex.c ****       {
 1478              		.loc 1 906 12 is_stmt 1 view .LVU511
 906:Drivers/STM32G4xx_HAL_Driver/Src/stm32g4xx_hal_rcc_ex.c ****       {
 1479              		.loc 1 906 14 is_stmt 0 view .LVU512
 1480 037c B3F5806F 		cmp	r3, #1024
 1481 0380 18D0     		beq	.L189
 910:Drivers/STM32G4xx_HAL_Driver/Src/stm32g4xx_hal_rcc_ex.c ****       {
 1482              		.loc 1 910 12 is_stmt 1 view .LVU513
ARM GAS  C:\Users\aniru.000\AppData\Local\Temp\ccGZAzIF.s 			page 54


 910:Drivers/STM32G4xx_HAL_Driver/Src/stm32g4xx_hal_rcc_ex.c ****       {
 1483              		.loc 1 910 16 is_stmt 0 view .LVU514
 1484 0382 8B4A     		ldr	r2, .L204
 1485              	.LVL119:
 910:Drivers/STM32G4xx_HAL_Driver/Src/stm32g4xx_hal_rcc_ex.c ****       {
 1486              		.loc 1 910 16 view .LVU515
 1487 0384 1268     		ldr	r2, [r2]
 910:Drivers/STM32G4xx_HAL_Driver/Src/stm32g4xx_hal_rcc_ex.c ****       {
 1488              		.loc 1 910 14 view .LVU516
 1489 0386 12F4806F 		tst	r2, #1024
 1490 038a 03D0     		beq	.L100
 910:Drivers/STM32G4xx_HAL_Driver/Src/stm32g4xx_hal_rcc_ex.c ****       {
 1491              		.loc 1 910 56 discriminator 1 view .LVU517
 1492 038c B3F5006F 		cmp	r3, #2048
 1493 0390 00F09981 		beq	.L136
 1494              	.L100:
 914:Drivers/STM32G4xx_HAL_Driver/Src/stm32g4xx_hal_rcc_ex.c ****       {
 1495              		.loc 1 914 12 is_stmt 1 view .LVU518
 914:Drivers/STM32G4xx_HAL_Driver/Src/stm32g4xx_hal_rcc_ex.c ****       {
 1496              		.loc 1 914 16 is_stmt 0 view .LVU519
 1497 0394 864A     		ldr	r2, .L204
 1498 0396 D2F89000 		ldr	r0, [r2, #144]
 1499              	.LVL120:
 914:Drivers/STM32G4xx_HAL_Driver/Src/stm32g4xx_hal_rcc_ex.c ****       {
 1500              		.loc 1 914 14 view .LVU520
 1501 039a 10F00200 		ands	r0, r0, #2
 1502 039e 3FF499AE 		beq	.L52
 914:Drivers/STM32G4xx_HAL_Driver/Src/stm32g4xx_hal_rcc_ex.c ****       {
 1503              		.loc 1 914 60 discriminator 1 view .LVU521
 1504 03a2 B3F5406F 		cmp	r3, #3072
 1505 03a6 00F09081 		beq	.L137
 686:Drivers/STM32G4xx_HAL_Driver/Src/stm32g4xx_hal_rcc_ex.c ****   uint32_t srcclk;
 1506              		.loc 1 686 12 view .LVU522
 1507 03aa 0020     		movs	r0, #0
 1508 03ac 92E6     		b	.L52
 1509              	.LVL121:
 1510              	.L188:
 904:Drivers/STM32G4xx_HAL_Driver/Src/stm32g4xx_hal_rcc_ex.c ****       }
 1511              		.loc 1 904 9 is_stmt 1 view .LVU523
 904:Drivers/STM32G4xx_HAL_Driver/Src/stm32g4xx_hal_rcc_ex.c ****       }
 1512              		.loc 1 904 21 is_stmt 0 view .LVU524
 1513 03ae FFF7FEFF 		bl	HAL_RCC_GetPCLK1Freq
 1514              	.LVL122:
 904:Drivers/STM32G4xx_HAL_Driver/Src/stm32g4xx_hal_rcc_ex.c ****       }
 1515              		.loc 1 904 21 view .LVU525
 1516 03b2 8FE6     		b	.L52
 1517              	.LVL123:
 1518              	.L189:
 908:Drivers/STM32G4xx_HAL_Driver/Src/stm32g4xx_hal_rcc_ex.c ****       }
 1519              		.loc 1 908 9 is_stmt 1 view .LVU526
 908:Drivers/STM32G4xx_HAL_Driver/Src/stm32g4xx_hal_rcc_ex.c ****       }
 1520              		.loc 1 908 21 is_stmt 0 view .LVU527
 1521 03b4 FFF7FEFF 		bl	HAL_RCC_GetSysClockFreq
 1522              	.LVL124:
 908:Drivers/STM32G4xx_HAL_Driver/Src/stm32g4xx_hal_rcc_ex.c ****       }
 1523              		.loc 1 908 21 view .LVU528
 1524 03b8 8CE6     		b	.L52
ARM GAS  C:\Users\aniru.000\AppData\Local\Temp\ccGZAzIF.s 			page 55


 1525              	.LVL125:
 1526              	.L169:
 931:Drivers/STM32G4xx_HAL_Driver/Src/stm32g4xx_hal_rcc_ex.c ****       }
 1527              		.loc 1 931 9 is_stmt 1 view .LVU529
 931:Drivers/STM32G4xx_HAL_Driver/Src/stm32g4xx_hal_rcc_ex.c ****       }
 1528              		.loc 1 931 21 is_stmt 0 view .LVU530
 1529 03ba FFF7FEFF 		bl	HAL_RCC_GetPCLK1Freq
 1530              	.LVL126:
 931:Drivers/STM32G4xx_HAL_Driver/Src/stm32g4xx_hal_rcc_ex.c ****       }
 1531              		.loc 1 931 21 view .LVU531
 1532 03be 89E6     		b	.L52
 1533              	.LVL127:
 1534              	.L170:
 935:Drivers/STM32G4xx_HAL_Driver/Src/stm32g4xx_hal_rcc_ex.c ****       }
 1535              		.loc 1 935 9 is_stmt 1 view .LVU532
 935:Drivers/STM32G4xx_HAL_Driver/Src/stm32g4xx_hal_rcc_ex.c ****       }
 1536              		.loc 1 935 21 is_stmt 0 view .LVU533
 1537 03c0 FFF7FEFF 		bl	HAL_RCC_GetSysClockFreq
 1538              	.LVL128:
 935:Drivers/STM32G4xx_HAL_Driver/Src/stm32g4xx_hal_rcc_ex.c ****       }
 1539              		.loc 1 935 21 view .LVU534
 1540 03c4 86E6     		b	.L52
 1541              	.LVL129:
 1542              	.L68:
 950:Drivers/STM32G4xx_HAL_Driver/Src/stm32g4xx_hal_rcc_ex.c **** 
 1543              		.loc 1 950 7 is_stmt 1 view .LVU535
 950:Drivers/STM32G4xx_HAL_Driver/Src/stm32g4xx_hal_rcc_ex.c **** 
 1544              		.loc 1 950 16 is_stmt 0 view .LVU536
 1545 03c6 7A4B     		ldr	r3, .L204
 1546 03c8 D3F88830 		ldr	r3, [r3, #136]
 1547              	.LVL130:
 952:Drivers/STM32G4xx_HAL_Driver/Src/stm32g4xx_hal_rcc_ex.c ****       {
 1548              		.loc 1 952 7 is_stmt 1 view .LVU537
 952:Drivers/STM32G4xx_HAL_Driver/Src/stm32g4xx_hal_rcc_ex.c ****       {
 1549              		.loc 1 952 9 is_stmt 0 view .LVU538
 1550 03cc 13F44043 		ands	r3, r3, #49152
 1551              	.LVL131:
 952:Drivers/STM32G4xx_HAL_Driver/Src/stm32g4xx_hal_rcc_ex.c ****       {
 1552              		.loc 1 952 9 view .LVU539
 1553 03d0 0ED0     		beq	.L190
 956:Drivers/STM32G4xx_HAL_Driver/Src/stm32g4xx_hal_rcc_ex.c ****       {
 1554              		.loc 1 956 12 is_stmt 1 view .LVU540
 956:Drivers/STM32G4xx_HAL_Driver/Src/stm32g4xx_hal_rcc_ex.c ****       {
 1555              		.loc 1 956 14 is_stmt 0 view .LVU541
 1556 03d2 B3F5804F 		cmp	r3, #16384
 1557 03d6 0ED0     		beq	.L191
 960:Drivers/STM32G4xx_HAL_Driver/Src/stm32g4xx_hal_rcc_ex.c ****       {
 1558              		.loc 1 960 12 is_stmt 1 view .LVU542
 960:Drivers/STM32G4xx_HAL_Driver/Src/stm32g4xx_hal_rcc_ex.c ****       {
 1559              		.loc 1 960 16 is_stmt 0 view .LVU543
 1560 03d8 754A     		ldr	r2, .L204
 1561              	.LVL132:
 960:Drivers/STM32G4xx_HAL_Driver/Src/stm32g4xx_hal_rcc_ex.c ****       {
 1562              		.loc 1 960 16 view .LVU544
 1563 03da 1068     		ldr	r0, [r2]
 1564              	.LVL133:
 960:Drivers/STM32G4xx_HAL_Driver/Src/stm32g4xx_hal_rcc_ex.c ****       {
ARM GAS  C:\Users\aniru.000\AppData\Local\Temp\ccGZAzIF.s 			page 56


 1565              		.loc 1 960 14 view .LVU545
 1566 03dc 10F48060 		ands	r0, r0, #1024
 1567 03e0 3FF478AE 		beq	.L52
 960:Drivers/STM32G4xx_HAL_Driver/Src/stm32g4xx_hal_rcc_ex.c ****       {
 1568              		.loc 1 960 56 discriminator 1 view .LVU546
 1569 03e4 B3F5004F 		cmp	r3, #32768
 1570 03e8 00F07481 		beq	.L139
 686:Drivers/STM32G4xx_HAL_Driver/Src/stm32g4xx_hal_rcc_ex.c ****   uint32_t srcclk;
 1571              		.loc 1 686 12 view .LVU547
 1572 03ec 0020     		movs	r0, #0
 1573 03ee 71E6     		b	.L52
 1574              	.LVL134:
 1575              	.L190:
 954:Drivers/STM32G4xx_HAL_Driver/Src/stm32g4xx_hal_rcc_ex.c ****       }
 1576              		.loc 1 954 9 is_stmt 1 view .LVU548
 954:Drivers/STM32G4xx_HAL_Driver/Src/stm32g4xx_hal_rcc_ex.c ****       }
 1577              		.loc 1 954 21 is_stmt 0 view .LVU549
 1578 03f0 FFF7FEFF 		bl	HAL_RCC_GetPCLK1Freq
 1579              	.LVL135:
 954:Drivers/STM32G4xx_HAL_Driver/Src/stm32g4xx_hal_rcc_ex.c ****       }
 1580              		.loc 1 954 21 view .LVU550
 1581 03f4 6EE6     		b	.L52
 1582              	.LVL136:
 1583              	.L191:
 958:Drivers/STM32G4xx_HAL_Driver/Src/stm32g4xx_hal_rcc_ex.c ****       }
 1584              		.loc 1 958 9 is_stmt 1 view .LVU551
 958:Drivers/STM32G4xx_HAL_Driver/Src/stm32g4xx_hal_rcc_ex.c ****       }
 1585              		.loc 1 958 21 is_stmt 0 view .LVU552
 1586 03f6 FFF7FEFF 		bl	HAL_RCC_GetSysClockFreq
 1587              	.LVL137:
 958:Drivers/STM32G4xx_HAL_Driver/Src/stm32g4xx_hal_rcc_ex.c ****       }
 1588              		.loc 1 958 21 view .LVU553
 1589 03fa 6BE6     		b	.L52
 1590              	.LVL138:
 1591              	.L172:
 979:Drivers/STM32G4xx_HAL_Driver/Src/stm32g4xx_hal_rcc_ex.c ****       }
 1592              		.loc 1 979 9 is_stmt 1 view .LVU554
 979:Drivers/STM32G4xx_HAL_Driver/Src/stm32g4xx_hal_rcc_ex.c ****       }
 1593              		.loc 1 979 21 is_stmt 0 view .LVU555
 1594 03fc FFF7FEFF 		bl	HAL_RCC_GetPCLK1Freq
 1595              	.LVL139:
 979:Drivers/STM32G4xx_HAL_Driver/Src/stm32g4xx_hal_rcc_ex.c ****       }
 1596              		.loc 1 979 21 view .LVU556
 1597 0400 68E6     		b	.L52
 1598              	.LVL140:
 1599              	.L173:
 983:Drivers/STM32G4xx_HAL_Driver/Src/stm32g4xx_hal_rcc_ex.c ****       }
 1600              		.loc 1 983 9 is_stmt 1 view .LVU557
 983:Drivers/STM32G4xx_HAL_Driver/Src/stm32g4xx_hal_rcc_ex.c ****       }
 1601              		.loc 1 983 21 is_stmt 0 view .LVU558
 1602 0402 FFF7FEFF 		bl	HAL_RCC_GetSysClockFreq
 1603              	.LVL141:
 983:Drivers/STM32G4xx_HAL_Driver/Src/stm32g4xx_hal_rcc_ex.c ****       }
 1604              		.loc 1 983 21 view .LVU559
 1605 0406 65E6     		b	.L52
 1606              	.LVL142:
 1607              	.L59:
ARM GAS  C:\Users\aniru.000\AppData\Local\Temp\ccGZAzIF.s 			page 57


1027:Drivers/STM32G4xx_HAL_Driver/Src/stm32g4xx_hal_rcc_ex.c **** 
 1608              		.loc 1 1027 7 is_stmt 1 view .LVU560
1027:Drivers/STM32G4xx_HAL_Driver/Src/stm32g4xx_hal_rcc_ex.c **** 
 1609              		.loc 1 1027 16 is_stmt 0 view .LVU561
 1610 0408 694B     		ldr	r3, .L204
 1611 040a D3F88830 		ldr	r3, [r3, #136]
 1612              	.LVL143:
1029:Drivers/STM32G4xx_HAL_Driver/Src/stm32g4xx_hal_rcc_ex.c ****       {
 1613              		.loc 1 1029 7 is_stmt 1 view .LVU562
1029:Drivers/STM32G4xx_HAL_Driver/Src/stm32g4xx_hal_rcc_ex.c ****       {
 1614              		.loc 1 1029 9 is_stmt 0 view .LVU563
 1615 040e 13F44023 		ands	r3, r3, #786432
 1616              	.LVL144:
1029:Drivers/STM32G4xx_HAL_Driver/Src/stm32g4xx_hal_rcc_ex.c ****       {
 1617              		.loc 1 1029 9 view .LVU564
 1618 0412 1FD0     		beq	.L192
1033:Drivers/STM32G4xx_HAL_Driver/Src/stm32g4xx_hal_rcc_ex.c ****       {
 1619              		.loc 1 1033 12 is_stmt 1 view .LVU565
1033:Drivers/STM32G4xx_HAL_Driver/Src/stm32g4xx_hal_rcc_ex.c ****       {
 1620              		.loc 1 1033 16 is_stmt 0 view .LVU566
 1621 0414 664A     		ldr	r2, .L204
 1622              	.LVL145:
1033:Drivers/STM32G4xx_HAL_Driver/Src/stm32g4xx_hal_rcc_ex.c ****       {
 1623              		.loc 1 1033 16 view .LVU567
 1624 0416 D2F89420 		ldr	r2, [r2, #148]
1033:Drivers/STM32G4xx_HAL_Driver/Src/stm32g4xx_hal_rcc_ex.c ****       {
 1625              		.loc 1 1033 14 view .LVU568
 1626 041a 12F0020F 		tst	r2, #2
 1627 041e 03D0     		beq	.L108
1033:Drivers/STM32G4xx_HAL_Driver/Src/stm32g4xx_hal_rcc_ex.c ****       {
 1628              		.loc 1 1033 58 discriminator 1 view .LVU569
 1629 0420 B3F5802F 		cmp	r3, #262144
 1630 0424 00F05A81 		beq	.L141
 1631              	.L108:
1037:Drivers/STM32G4xx_HAL_Driver/Src/stm32g4xx_hal_rcc_ex.c ****       {
 1632              		.loc 1 1037 12 is_stmt 1 view .LVU570
1037:Drivers/STM32G4xx_HAL_Driver/Src/stm32g4xx_hal_rcc_ex.c ****       {
 1633              		.loc 1 1037 16 is_stmt 0 view .LVU571
 1634 0428 614A     		ldr	r2, .L204
 1635 042a 1268     		ldr	r2, [r2]
1037:Drivers/STM32G4xx_HAL_Driver/Src/stm32g4xx_hal_rcc_ex.c ****       {
 1636              		.loc 1 1037 14 view .LVU572
 1637 042c 12F4806F 		tst	r2, #1024
 1638 0430 03D0     		beq	.L109
1037:Drivers/STM32G4xx_HAL_Driver/Src/stm32g4xx_hal_rcc_ex.c ****       {
 1639              		.loc 1 1037 56 discriminator 1 view .LVU573
 1640 0432 B3F5002F 		cmp	r3, #524288
 1641 0436 00F05481 		beq	.L142
 1642              	.L109:
1041:Drivers/STM32G4xx_HAL_Driver/Src/stm32g4xx_hal_rcc_ex.c ****       {
 1643              		.loc 1 1041 12 is_stmt 1 view .LVU574
1041:Drivers/STM32G4xx_HAL_Driver/Src/stm32g4xx_hal_rcc_ex.c ****       {
 1644              		.loc 1 1041 17 is_stmt 0 view .LVU575
 1645 043a 5D4A     		ldr	r2, .L204
 1646 043c D2F89000 		ldr	r0, [r2, #144]
 1647              	.LVL146:
1041:Drivers/STM32G4xx_HAL_Driver/Src/stm32g4xx_hal_rcc_ex.c ****       {
ARM GAS  C:\Users\aniru.000\AppData\Local\Temp\ccGZAzIF.s 			page 58


 1648              		.loc 1 1041 15 view .LVU576
 1649 0440 10F00200 		ands	r0, r0, #2
 1650 0444 3FF446AE 		beq	.L52
1041:Drivers/STM32G4xx_HAL_Driver/Src/stm32g4xx_hal_rcc_ex.c ****       {
 1651              		.loc 1 1041 61 discriminator 1 view .LVU577
 1652 0448 B3F5402F 		cmp	r3, #786432
 1653 044c 00F04B81 		beq	.L143
 686:Drivers/STM32G4xx_HAL_Driver/Src/stm32g4xx_hal_rcc_ex.c ****   uint32_t srcclk;
 1654              		.loc 1 686 12 view .LVU578
 1655 0450 0020     		movs	r0, #0
 1656 0452 3FE6     		b	.L52
 1657              	.LVL147:
 1658              	.L192:
1031:Drivers/STM32G4xx_HAL_Driver/Src/stm32g4xx_hal_rcc_ex.c ****       }
 1659              		.loc 1 1031 9 is_stmt 1 view .LVU579
1031:Drivers/STM32G4xx_HAL_Driver/Src/stm32g4xx_hal_rcc_ex.c ****       }
 1660              		.loc 1 1031 21 is_stmt 0 view .LVU580
 1661 0454 FFF7FEFF 		bl	HAL_RCC_GetPCLK1Freq
 1662              	.LVL148:
1031:Drivers/STM32G4xx_HAL_Driver/Src/stm32g4xx_hal_rcc_ex.c ****       }
 1663              		.loc 1 1031 21 view .LVU581
 1664 0458 3CE6     		b	.L52
 1665              	.LVL149:
 1666              	.L77:
1056:Drivers/STM32G4xx_HAL_Driver/Src/stm32g4xx_hal_rcc_ex.c **** 
 1667              		.loc 1 1056 7 is_stmt 1 view .LVU582
1056:Drivers/STM32G4xx_HAL_Driver/Src/stm32g4xx_hal_rcc_ex.c **** 
 1668              		.loc 1 1056 16 is_stmt 0 view .LVU583
 1669 045a 554B     		ldr	r3, .L204
 1670 045c D3F88830 		ldr	r3, [r3, #136]
 1671              	.LVL150:
1058:Drivers/STM32G4xx_HAL_Driver/Src/stm32g4xx_hal_rcc_ex.c ****       {
 1672              		.loc 1 1058 7 is_stmt 1 view .LVU584
1058:Drivers/STM32G4xx_HAL_Driver/Src/stm32g4xx_hal_rcc_ex.c ****       {
 1673              		.loc 1 1058 9 is_stmt 0 view .LVU585
 1674 0460 13F44013 		ands	r3, r3, #3145728
 1675              	.LVL151:
1058:Drivers/STM32G4xx_HAL_Driver/Src/stm32g4xx_hal_rcc_ex.c ****       {
 1676              		.loc 1 1058 9 view .LVU586
 1677 0464 12D0     		beq	.L193
1062:Drivers/STM32G4xx_HAL_Driver/Src/stm32g4xx_hal_rcc_ex.c ****       {
 1678              		.loc 1 1062 12 is_stmt 1 view .LVU587
1062:Drivers/STM32G4xx_HAL_Driver/Src/stm32g4xx_hal_rcc_ex.c ****       {
 1679              		.loc 1 1062 14 is_stmt 0 view .LVU588
 1680 0466 B3F5801F 		cmp	r3, #1048576
 1681 046a 12D0     		beq	.L194
1071:Drivers/STM32G4xx_HAL_Driver/Src/stm32g4xx_hal_rcc_ex.c ****       {
 1682              		.loc 1 1071 12 is_stmt 1 view .LVU589
1071:Drivers/STM32G4xx_HAL_Driver/Src/stm32g4xx_hal_rcc_ex.c ****       {
 1683              		.loc 1 1071 14 is_stmt 0 view .LVU590
 1684 046c B3F5001F 		cmp	r3, #2097152
 1685 0470 00F03C81 		beq	.L144
1076:Drivers/STM32G4xx_HAL_Driver/Src/stm32g4xx_hal_rcc_ex.c ****       {
 1686              		.loc 1 1076 12 is_stmt 1 view .LVU591
1076:Drivers/STM32G4xx_HAL_Driver/Src/stm32g4xx_hal_rcc_ex.c ****       {
 1687              		.loc 1 1076 16 is_stmt 0 view .LVU592
 1688 0474 4E4A     		ldr	r2, .L204
ARM GAS  C:\Users\aniru.000\AppData\Local\Temp\ccGZAzIF.s 			page 59


 1689              	.LVL152:
1076:Drivers/STM32G4xx_HAL_Driver/Src/stm32g4xx_hal_rcc_ex.c ****       {
 1690              		.loc 1 1076 16 view .LVU593
 1691 0476 1068     		ldr	r0, [r2]
 1692              	.LVL153:
1076:Drivers/STM32G4xx_HAL_Driver/Src/stm32g4xx_hal_rcc_ex.c ****       {
 1693              		.loc 1 1076 14 view .LVU594
 1694 0478 10F48060 		ands	r0, r0, #1024
 1695 047c 3FF42AAE 		beq	.L52
1076:Drivers/STM32G4xx_HAL_Driver/Src/stm32g4xx_hal_rcc_ex.c ****       {
 1696              		.loc 1 1076 56 discriminator 1 view .LVU595
 1697 0480 B3F5401F 		cmp	r3, #3145728
 1698 0484 00F03481 		beq	.L145
 686:Drivers/STM32G4xx_HAL_Driver/Src/stm32g4xx_hal_rcc_ex.c ****   uint32_t srcclk;
 1699              		.loc 1 686 12 view .LVU596
 1700 0488 0020     		movs	r0, #0
 1701 048a 23E6     		b	.L52
 1702              	.LVL154:
 1703              	.L193:
1060:Drivers/STM32G4xx_HAL_Driver/Src/stm32g4xx_hal_rcc_ex.c ****       }
 1704              		.loc 1 1060 9 is_stmt 1 view .LVU597
1060:Drivers/STM32G4xx_HAL_Driver/Src/stm32g4xx_hal_rcc_ex.c ****       }
 1705              		.loc 1 1060 21 is_stmt 0 view .LVU598
 1706 048c FFF7FEFF 		bl	HAL_RCC_GetSysClockFreq
 1707              	.LVL155:
1060:Drivers/STM32G4xx_HAL_Driver/Src/stm32g4xx_hal_rcc_ex.c ****       }
 1708              		.loc 1 1060 21 view .LVU599
 1709 0490 20E6     		b	.L52
 1710              	.LVL156:
 1711              	.L194:
1064:Drivers/STM32G4xx_HAL_Driver/Src/stm32g4xx_hal_rcc_ex.c ****         {
 1712              		.loc 1 1064 9 is_stmt 1 view .LVU600
1064:Drivers/STM32G4xx_HAL_Driver/Src/stm32g4xx_hal_rcc_ex.c ****         {
 1713              		.loc 1 1064 12 is_stmt 0 view .LVU601
 1714 0492 03F18043 		add	r3, r3, #1073741824
 1715              	.LVL157:
1064:Drivers/STM32G4xx_HAL_Driver/Src/stm32g4xx_hal_rcc_ex.c ****         {
 1716              		.loc 1 1064 12 view .LVU602
 1717 0496 A3F55F23 		sub	r3, r3, #913408
 1718              	.LVL158:
1064:Drivers/STM32G4xx_HAL_Driver/Src/stm32g4xx_hal_rcc_ex.c ****         {
 1719              		.loc 1 1064 12 view .LVU603
 1720 049a D868     		ldr	r0, [r3, #12]
 1721              	.LVL159:
1064:Drivers/STM32G4xx_HAL_Driver/Src/stm32g4xx_hal_rcc_ex.c ****         {
 1722              		.loc 1 1064 11 view .LVU604
 1723 049c 10F48010 		ands	r0, r0, #1048576
 1724 04a0 3FF418AE 		beq	.L52
1067:Drivers/STM32G4xx_HAL_Driver/Src/stm32g4xx_hal_rcc_ex.c ****           frequency = (pllvco * plln) / (((READ_BIT(RCC->PLLCFGR, RCC_PLLCFGR_PLLQ) >> RCC_PLLCFGR_
 1725              		.loc 1 1067 11 is_stmt 1 view .LVU605
1067:Drivers/STM32G4xx_HAL_Driver/Src/stm32g4xx_hal_rcc_ex.c ****           frequency = (pllvco * plln) / (((READ_BIT(RCC->PLLCFGR, RCC_PLLCFGR_PLLQ) >> RCC_PLLCFGR_
 1726              		.loc 1 1067 18 is_stmt 0 view .LVU606
 1727 04a4 D868     		ldr	r0, [r3, #12]
1067:Drivers/STM32G4xx_HAL_Driver/Src/stm32g4xx_hal_rcc_ex.c ****           frequency = (pllvco * plln) / (((READ_BIT(RCC->PLLCFGR, RCC_PLLCFGR_PLLQ) >> RCC_PLLCFGR_
 1728              		.loc 1 1067 16 view .LVU607
 1729 04a6 C0F30620 		ubfx	r0, r0, #8, #7
 1730              	.LVL160:
ARM GAS  C:\Users\aniru.000\AppData\Local\Temp\ccGZAzIF.s 			page 60


1068:Drivers/STM32G4xx_HAL_Driver/Src/stm32g4xx_hal_rcc_ex.c ****         }
 1731              		.loc 1 1068 11 is_stmt 1 view .LVU608
1068:Drivers/STM32G4xx_HAL_Driver/Src/stm32g4xx_hal_rcc_ex.c ****         }
 1732              		.loc 1 1068 31 is_stmt 0 view .LVU609
 1733 04aa 02FB00F0 		mul	r0, r2, r0
 1734              	.LVL161:
1068:Drivers/STM32G4xx_HAL_Driver/Src/stm32g4xx_hal_rcc_ex.c ****         }
 1735              		.loc 1 1068 44 view .LVU610
 1736 04ae DB68     		ldr	r3, [r3, #12]
 1737              	.LVL162:
1068:Drivers/STM32G4xx_HAL_Driver/Src/stm32g4xx_hal_rcc_ex.c ****         }
 1738              		.loc 1 1068 85 view .LVU611
 1739 04b0 C3F34153 		ubfx	r3, r3, #21, #2
1068:Drivers/STM32G4xx_HAL_Driver/Src/stm32g4xx_hal_rcc_ex.c ****         }
 1740              		.loc 1 1068 110 view .LVU612
 1741 04b4 0133     		adds	r3, r3, #1
1068:Drivers/STM32G4xx_HAL_Driver/Src/stm32g4xx_hal_rcc_ex.c ****         }
 1742              		.loc 1 1068 116 view .LVU613
 1743 04b6 5B00     		lsls	r3, r3, #1
1068:Drivers/STM32G4xx_HAL_Driver/Src/stm32g4xx_hal_rcc_ex.c ****         }
 1744              		.loc 1 1068 21 view .LVU614
 1745 04b8 B0FBF3F0 		udiv	r0, r0, r3
 1746              	.LVL163:
1068:Drivers/STM32G4xx_HAL_Driver/Src/stm32g4xx_hal_rcc_ex.c ****         }
 1747              		.loc 1 1068 21 view .LVU615
 1748 04bc 0AE6     		b	.L52
 1749              	.LVL164:
 1750              	.L175:
1096:Drivers/STM32G4xx_HAL_Driver/Src/stm32g4xx_hal_rcc_ex.c ****       }
 1751              		.loc 1 1096 9 is_stmt 1 view .LVU616
1096:Drivers/STM32G4xx_HAL_Driver/Src/stm32g4xx_hal_rcc_ex.c ****       }
 1752              		.loc 1 1096 21 is_stmt 0 view .LVU617
 1753 04be FFF7FEFF 		bl	HAL_RCC_GetSysClockFreq
 1754              	.LVL165:
1096:Drivers/STM32G4xx_HAL_Driver/Src/stm32g4xx_hal_rcc_ex.c ****       }
 1755              		.loc 1 1096 21 view .LVU618
 1756 04c2 07E6     		b	.L52
 1757              	.LVL166:
 1758              	.L176:
1100:Drivers/STM32G4xx_HAL_Driver/Src/stm32g4xx_hal_rcc_ex.c ****         {
 1759              		.loc 1 1100 9 is_stmt 1 view .LVU619
1100:Drivers/STM32G4xx_HAL_Driver/Src/stm32g4xx_hal_rcc_ex.c ****         {
 1760              		.loc 1 1100 12 is_stmt 0 view .LVU620
 1761 04c4 03F17F53 		add	r3, r3, #1069547520
 1762              	.LVL167:
1100:Drivers/STM32G4xx_HAL_Driver/Src/stm32g4xx_hal_rcc_ex.c ****         {
 1763              		.loc 1 1100 12 view .LVU621
 1764 04c8 03F50433 		add	r3, r3, #135168
 1765              	.LVL168:
1100:Drivers/STM32G4xx_HAL_Driver/Src/stm32g4xx_hal_rcc_ex.c ****         {
 1766              		.loc 1 1100 12 view .LVU622
 1767 04cc D868     		ldr	r0, [r3, #12]
 1768              	.LVL169:
1100:Drivers/STM32G4xx_HAL_Driver/Src/stm32g4xx_hal_rcc_ex.c ****         {
 1769              		.loc 1 1100 11 view .LVU623
 1770 04ce 10F48010 		ands	r0, r0, #1048576
 1771 04d2 3FF4FFAD 		beq	.L52
ARM GAS  C:\Users\aniru.000\AppData\Local\Temp\ccGZAzIF.s 			page 61


1103:Drivers/STM32G4xx_HAL_Driver/Src/stm32g4xx_hal_rcc_ex.c ****           frequency = (pllvco * plln) / (((READ_BIT(RCC->PLLCFGR, RCC_PLLCFGR_PLLQ) >> RCC_PLLCFGR_
 1772              		.loc 1 1103 11 is_stmt 1 view .LVU624
1103:Drivers/STM32G4xx_HAL_Driver/Src/stm32g4xx_hal_rcc_ex.c ****           frequency = (pllvco * plln) / (((READ_BIT(RCC->PLLCFGR, RCC_PLLCFGR_PLLQ) >> RCC_PLLCFGR_
 1773              		.loc 1 1103 18 is_stmt 0 view .LVU625
 1774 04d6 D868     		ldr	r0, [r3, #12]
1103:Drivers/STM32G4xx_HAL_Driver/Src/stm32g4xx_hal_rcc_ex.c ****           frequency = (pllvco * plln) / (((READ_BIT(RCC->PLLCFGR, RCC_PLLCFGR_PLLQ) >> RCC_PLLCFGR_
 1775              		.loc 1 1103 16 view .LVU626
 1776 04d8 C0F30620 		ubfx	r0, r0, #8, #7
 1777              	.LVL170:
1104:Drivers/STM32G4xx_HAL_Driver/Src/stm32g4xx_hal_rcc_ex.c ****         }
 1778              		.loc 1 1104 11 is_stmt 1 view .LVU627
1104:Drivers/STM32G4xx_HAL_Driver/Src/stm32g4xx_hal_rcc_ex.c ****         }
 1779              		.loc 1 1104 31 is_stmt 0 view .LVU628
 1780 04dc 02FB00F0 		mul	r0, r2, r0
 1781              	.LVL171:
1104:Drivers/STM32G4xx_HAL_Driver/Src/stm32g4xx_hal_rcc_ex.c ****         }
 1782              		.loc 1 1104 44 view .LVU629
 1783 04e0 DB68     		ldr	r3, [r3, #12]
 1784              	.LVL172:
1104:Drivers/STM32G4xx_HAL_Driver/Src/stm32g4xx_hal_rcc_ex.c ****         }
 1785              		.loc 1 1104 85 view .LVU630
 1786 04e2 C3F34153 		ubfx	r3, r3, #21, #2
1104:Drivers/STM32G4xx_HAL_Driver/Src/stm32g4xx_hal_rcc_ex.c ****         }
 1787              		.loc 1 1104 110 view .LVU631
 1788 04e6 0133     		adds	r3, r3, #1
1104:Drivers/STM32G4xx_HAL_Driver/Src/stm32g4xx_hal_rcc_ex.c ****         }
 1789              		.loc 1 1104 116 view .LVU632
 1790 04e8 5B00     		lsls	r3, r3, #1
1104:Drivers/STM32G4xx_HAL_Driver/Src/stm32g4xx_hal_rcc_ex.c ****         }
 1791              		.loc 1 1104 21 view .LVU633
 1792 04ea B0FBF3F0 		udiv	r0, r0, r3
 1793              	.LVL173:
1104:Drivers/STM32G4xx_HAL_Driver/Src/stm32g4xx_hal_rcc_ex.c ****         }
 1794              		.loc 1 1104 21 view .LVU634
 1795 04ee F1E5     		b	.L52
 1796              	.LVL174:
 1797              	.L75:
1127:Drivers/STM32G4xx_HAL_Driver/Src/stm32g4xx_hal_rcc_ex.c **** 
 1798              		.loc 1 1127 7 is_stmt 1 view .LVU635
1127:Drivers/STM32G4xx_HAL_Driver/Src/stm32g4xx_hal_rcc_ex.c **** 
 1799              		.loc 1 1127 16 is_stmt 0 view .LVU636
 1800 04f0 2F4B     		ldr	r3, .L204
 1801 04f2 D3F88830 		ldr	r3, [r3, #136]
1127:Drivers/STM32G4xx_HAL_Driver/Src/stm32g4xx_hal_rcc_ex.c **** 
 1802              		.loc 1 1127 14 view .LVU637
 1803 04f6 03F04073 		and	r3, r3, #50331648
 1804              	.LVL175:
1129:Drivers/STM32G4xx_HAL_Driver/Src/stm32g4xx_hal_rcc_ex.c ****       {
 1805              		.loc 1 1129 7 is_stmt 1 view .LVU638
1129:Drivers/STM32G4xx_HAL_Driver/Src/stm32g4xx_hal_rcc_ex.c ****       {
 1806              		.loc 1 1129 9 is_stmt 0 view .LVU639
 1807 04fa B3F1007F 		cmp	r3, #33554432
 1808 04fe 07D0     		beq	.L195
1133:Drivers/STM32G4xx_HAL_Driver/Src/stm32g4xx_hal_rcc_ex.c ****       {
 1809              		.loc 1 1133 12 is_stmt 1 view .LVU640
1133:Drivers/STM32G4xx_HAL_Driver/Src/stm32g4xx_hal_rcc_ex.c ****       {
 1810              		.loc 1 1133 14 is_stmt 0 view .LVU641
ARM GAS  C:\Users\aniru.000\AppData\Local\Temp\ccGZAzIF.s 			page 62


 1811 0500 002B     		cmp	r3, #0
 1812 0502 00F0FB80 		beq	.L148
1137:Drivers/STM32G4xx_HAL_Driver/Src/stm32g4xx_hal_rcc_ex.c ****       {
 1813              		.loc 1 1137 12 is_stmt 1 view .LVU642
1137:Drivers/STM32G4xx_HAL_Driver/Src/stm32g4xx_hal_rcc_ex.c ****       {
 1814              		.loc 1 1137 14 is_stmt 0 view .LVU643
 1815 0506 B3F1807F 		cmp	r3, #16777216
 1816 050a 04D0     		beq	.L196
 686:Drivers/STM32G4xx_HAL_Driver/Src/stm32g4xx_hal_rcc_ex.c ****   uint32_t srcclk;
 1817              		.loc 1 686 12 view .LVU644
 1818 050c 0020     		movs	r0, #0
 1819              	.LVL176:
 686:Drivers/STM32G4xx_HAL_Driver/Src/stm32g4xx_hal_rcc_ex.c ****   uint32_t srcclk;
 1820              		.loc 1 686 12 view .LVU645
 1821 050e E1E5     		b	.L52
 1822              	.LVL177:
 1823              	.L195:
1131:Drivers/STM32G4xx_HAL_Driver/Src/stm32g4xx_hal_rcc_ex.c ****       }
 1824              		.loc 1 1131 9 is_stmt 1 view .LVU646
1131:Drivers/STM32G4xx_HAL_Driver/Src/stm32g4xx_hal_rcc_ex.c ****       }
 1825              		.loc 1 1131 21 is_stmt 0 view .LVU647
 1826 0510 FFF7FEFF 		bl	HAL_RCC_GetPCLK1Freq
 1827              	.LVL178:
1131:Drivers/STM32G4xx_HAL_Driver/Src/stm32g4xx_hal_rcc_ex.c ****       }
 1828              		.loc 1 1131 21 view .LVU648
 1829 0514 DEE5     		b	.L52
 1830              	.LVL179:
 1831              	.L196:
1139:Drivers/STM32G4xx_HAL_Driver/Src/stm32g4xx_hal_rcc_ex.c ****         {
 1832              		.loc 1 1139 9 is_stmt 1 view .LVU649
1139:Drivers/STM32G4xx_HAL_Driver/Src/stm32g4xx_hal_rcc_ex.c ****         {
 1833              		.loc 1 1139 12 is_stmt 0 view .LVU650
 1834 0516 03F17C53 		add	r3, r3, #1056964608
 1835              	.LVL180:
1139:Drivers/STM32G4xx_HAL_Driver/Src/stm32g4xx_hal_rcc_ex.c ****         {
 1836              		.loc 1 1139 12 view .LVU651
 1837 051a 03F50433 		add	r3, r3, #135168
 1838              	.LVL181:
1139:Drivers/STM32G4xx_HAL_Driver/Src/stm32g4xx_hal_rcc_ex.c ****         {
 1839              		.loc 1 1139 12 view .LVU652
 1840 051e D868     		ldr	r0, [r3, #12]
 1841              	.LVL182:
1139:Drivers/STM32G4xx_HAL_Driver/Src/stm32g4xx_hal_rcc_ex.c ****         {
 1842              		.loc 1 1139 11 view .LVU653
 1843 0520 10F48010 		ands	r0, r0, #1048576
 1844 0524 3FF4D6AD 		beq	.L52
1142:Drivers/STM32G4xx_HAL_Driver/Src/stm32g4xx_hal_rcc_ex.c ****           frequency = (pllvco * plln) / (((READ_BIT(RCC->PLLCFGR, RCC_PLLCFGR_PLLQ) >> RCC_PLLCFGR_
 1845              		.loc 1 1142 11 is_stmt 1 view .LVU654
1142:Drivers/STM32G4xx_HAL_Driver/Src/stm32g4xx_hal_rcc_ex.c ****           frequency = (pllvco * plln) / (((READ_BIT(RCC->PLLCFGR, RCC_PLLCFGR_PLLQ) >> RCC_PLLCFGR_
 1846              		.loc 1 1142 18 is_stmt 0 view .LVU655
 1847 0528 D868     		ldr	r0, [r3, #12]
1142:Drivers/STM32G4xx_HAL_Driver/Src/stm32g4xx_hal_rcc_ex.c ****           frequency = (pllvco * plln) / (((READ_BIT(RCC->PLLCFGR, RCC_PLLCFGR_PLLQ) >> RCC_PLLCFGR_
 1848              		.loc 1 1142 16 view .LVU656
 1849 052a C0F30620 		ubfx	r0, r0, #8, #7
 1850              	.LVL183:
1143:Drivers/STM32G4xx_HAL_Driver/Src/stm32g4xx_hal_rcc_ex.c ****         }
 1851              		.loc 1 1143 11 is_stmt 1 view .LVU657
ARM GAS  C:\Users\aniru.000\AppData\Local\Temp\ccGZAzIF.s 			page 63


1143:Drivers/STM32G4xx_HAL_Driver/Src/stm32g4xx_hal_rcc_ex.c ****         }
 1852              		.loc 1 1143 31 is_stmt 0 view .LVU658
 1853 052e 02FB00F0 		mul	r0, r2, r0
 1854              	.LVL184:
1143:Drivers/STM32G4xx_HAL_Driver/Src/stm32g4xx_hal_rcc_ex.c ****         }
 1855              		.loc 1 1143 44 view .LVU659
 1856 0532 DB68     		ldr	r3, [r3, #12]
 1857              	.LVL185:
1143:Drivers/STM32G4xx_HAL_Driver/Src/stm32g4xx_hal_rcc_ex.c ****         }
 1858              		.loc 1 1143 85 view .LVU660
 1859 0534 C3F34153 		ubfx	r3, r3, #21, #2
1143:Drivers/STM32G4xx_HAL_Driver/Src/stm32g4xx_hal_rcc_ex.c ****         }
 1860              		.loc 1 1143 110 view .LVU661
 1861 0538 0133     		adds	r3, r3, #1
1143:Drivers/STM32G4xx_HAL_Driver/Src/stm32g4xx_hal_rcc_ex.c ****         }
 1862              		.loc 1 1143 116 view .LVU662
 1863 053a 5B00     		lsls	r3, r3, #1
1143:Drivers/STM32G4xx_HAL_Driver/Src/stm32g4xx_hal_rcc_ex.c ****         }
 1864              		.loc 1 1143 21 view .LVU663
 1865 053c B0FBF3F0 		udiv	r0, r0, r3
 1866              	.LVL186:
1143:Drivers/STM32G4xx_HAL_Driver/Src/stm32g4xx_hal_rcc_ex.c ****         }
 1867              		.loc 1 1143 21 view .LVU664
 1868 0540 C8E5     		b	.L52
 1869              	.LVL187:
 1870              	.L178:
1163:Drivers/STM32G4xx_HAL_Driver/Src/stm32g4xx_hal_rcc_ex.c ****         frequency = (pllvco * plln) / (((READ_BIT(RCC->PLLCFGR, RCC_PLLCFGR_PLLQ) >> RCC_PLLCFGR_PL
 1871              		.loc 1 1163 9 is_stmt 1 view .LVU665
1163:Drivers/STM32G4xx_HAL_Driver/Src/stm32g4xx_hal_rcc_ex.c ****         frequency = (pllvco * plln) / (((READ_BIT(RCC->PLLCFGR, RCC_PLLCFGR_PLLQ) >> RCC_PLLCFGR_PL
 1872              		.loc 1 1163 16 is_stmt 0 view .LVU666
 1873 0542 03F16053 		add	r3, r3, #939524096
 1874              	.LVL188:
1163:Drivers/STM32G4xx_HAL_Driver/Src/stm32g4xx_hal_rcc_ex.c ****         frequency = (pllvco * plln) / (((READ_BIT(RCC->PLLCFGR, RCC_PLLCFGR_PLLQ) >> RCC_PLLCFGR_PL
 1875              		.loc 1 1163 16 view .LVU667
 1876 0546 03F50433 		add	r3, r3, #135168
 1877              	.LVL189:
1163:Drivers/STM32G4xx_HAL_Driver/Src/stm32g4xx_hal_rcc_ex.c ****         frequency = (pllvco * plln) / (((READ_BIT(RCC->PLLCFGR, RCC_PLLCFGR_PLLQ) >> RCC_PLLCFGR_PL
 1878              		.loc 1 1163 16 view .LVU668
 1879 054a D868     		ldr	r0, [r3, #12]
 1880              	.LVL190:
1163:Drivers/STM32G4xx_HAL_Driver/Src/stm32g4xx_hal_rcc_ex.c ****         frequency = (pllvco * plln) / (((READ_BIT(RCC->PLLCFGR, RCC_PLLCFGR_PLLQ) >> RCC_PLLCFGR_PL
 1881              		.loc 1 1163 14 view .LVU669
 1882 054c C0F30620 		ubfx	r0, r0, #8, #7
 1883              	.LVL191:
1164:Drivers/STM32G4xx_HAL_Driver/Src/stm32g4xx_hal_rcc_ex.c ****       }
 1884              		.loc 1 1164 9 is_stmt 1 view .LVU670
1164:Drivers/STM32G4xx_HAL_Driver/Src/stm32g4xx_hal_rcc_ex.c ****       }
 1885              		.loc 1 1164 29 is_stmt 0 view .LVU671
 1886 0550 02FB00F0 		mul	r0, r2, r0
 1887              	.LVL192:
1164:Drivers/STM32G4xx_HAL_Driver/Src/stm32g4xx_hal_rcc_ex.c ****       }
 1888              		.loc 1 1164 42 view .LVU672
 1889 0554 DB68     		ldr	r3, [r3, #12]
 1890              	.LVL193:
1164:Drivers/STM32G4xx_HAL_Driver/Src/stm32g4xx_hal_rcc_ex.c ****       }
 1891              		.loc 1 1164 83 view .LVU673
 1892 0556 C3F34153 		ubfx	r3, r3, #21, #2
ARM GAS  C:\Users\aniru.000\AppData\Local\Temp\ccGZAzIF.s 			page 64


1164:Drivers/STM32G4xx_HAL_Driver/Src/stm32g4xx_hal_rcc_ex.c ****       }
 1893              		.loc 1 1164 108 view .LVU674
 1894 055a 0133     		adds	r3, r3, #1
1164:Drivers/STM32G4xx_HAL_Driver/Src/stm32g4xx_hal_rcc_ex.c ****       }
 1895              		.loc 1 1164 114 view .LVU675
 1896 055c 5B00     		lsls	r3, r3, #1
1164:Drivers/STM32G4xx_HAL_Driver/Src/stm32g4xx_hal_rcc_ex.c ****       }
 1897              		.loc 1 1164 19 view .LVU676
 1898 055e B0FBF3F0 		udiv	r0, r0, r3
 1899              	.LVL194:
1164:Drivers/STM32G4xx_HAL_Driver/Src/stm32g4xx_hal_rcc_ex.c ****       }
 1900              		.loc 1 1164 19 view .LVU677
 1901 0562 B7E5     		b	.L52
 1902              	.LVL195:
 1903              	.L73:
1180:Drivers/STM32G4xx_HAL_Driver/Src/stm32g4xx_hal_rcc_ex.c **** 
 1904              		.loc 1 1180 7 is_stmt 1 view .LVU678
1180:Drivers/STM32G4xx_HAL_Driver/Src/stm32g4xx_hal_rcc_ex.c **** 
 1905              		.loc 1 1180 16 is_stmt 0 view .LVU679
 1906 0564 124B     		ldr	r3, .L204
 1907 0566 D3F88830 		ldr	r3, [r3, #136]
1180:Drivers/STM32G4xx_HAL_Driver/Src/stm32g4xx_hal_rcc_ex.c **** 
 1908              		.loc 1 1180 14 view .LVU680
 1909 056a 03F04063 		and	r3, r3, #201326592
 1910              	.LVL196:
1182:Drivers/STM32G4xx_HAL_Driver/Src/stm32g4xx_hal_rcc_ex.c ****       {
 1911              		.loc 1 1182 7 is_stmt 1 view .LVU681
1182:Drivers/STM32G4xx_HAL_Driver/Src/stm32g4xx_hal_rcc_ex.c ****       {
 1912              		.loc 1 1182 9 is_stmt 0 view .LVU682
 1913 056e B3F1006F 		cmp	r3, #134217728
 1914 0572 0BD0     		beq	.L197
1188:Drivers/STM32G4xx_HAL_Driver/Src/stm32g4xx_hal_rcc_ex.c ****       {
 1915              		.loc 1 1188 12 is_stmt 1 view .LVU683
1188:Drivers/STM32G4xx_HAL_Driver/Src/stm32g4xx_hal_rcc_ex.c ****       {
 1916              		.loc 1 1188 17 is_stmt 0 view .LVU684
 1917 0574 0E4A     		ldr	r2, .L204
 1918              	.LVL197:
1188:Drivers/STM32G4xx_HAL_Driver/Src/stm32g4xx_hal_rcc_ex.c ****       {
 1919              		.loc 1 1188 17 view .LVU685
 1920 0576 D2F89800 		ldr	r0, [r2, #152]
 1921              	.LVL198:
1188:Drivers/STM32G4xx_HAL_Driver/Src/stm32g4xx_hal_rcc_ex.c ****       {
 1922              		.loc 1 1188 14 view .LVU686
 1923 057a 10F00200 		ands	r0, r0, #2
 1924 057e 3FF4A9AD 		beq	.L52
1188:Drivers/STM32G4xx_HAL_Driver/Src/stm32g4xx_hal_rcc_ex.c ****       {
 1925              		.loc 1 1188 65 discriminator 1 view .LVU687
 1926 0582 002B     		cmp	r3, #0
 1927 0584 00F0BE80 		beq	.L151
 686:Drivers/STM32G4xx_HAL_Driver/Src/stm32g4xx_hal_rcc_ex.c ****   uint32_t srcclk;
 1928              		.loc 1 686 12 view .LVU688
 1929 0588 0020     		movs	r0, #0
 1930 058a A3E5     		b	.L52
 1931              	.LVL199:
 1932              	.L197:
1185:Drivers/STM32G4xx_HAL_Driver/Src/stm32g4xx_hal_rcc_ex.c ****         frequency = (pllvco * plln) / (((READ_BIT(RCC->PLLCFGR, RCC_PLLCFGR_PLLQ) >> RCC_PLLCFGR_PL
 1933              		.loc 1 1185 9 is_stmt 1 view .LVU689
ARM GAS  C:\Users\aniru.000\AppData\Local\Temp\ccGZAzIF.s 			page 65


1185:Drivers/STM32G4xx_HAL_Driver/Src/stm32g4xx_hal_rcc_ex.c ****         frequency = (pllvco * plln) / (((READ_BIT(RCC->PLLCFGR, RCC_PLLCFGR_PLLQ) >> RCC_PLLCFGR_PL
 1934              		.loc 1 1185 16 is_stmt 0 view .LVU690
 1935 058c 03F16053 		add	r3, r3, #939524096
 1936              	.LVL200:
1185:Drivers/STM32G4xx_HAL_Driver/Src/stm32g4xx_hal_rcc_ex.c ****         frequency = (pllvco * plln) / (((READ_BIT(RCC->PLLCFGR, RCC_PLLCFGR_PLLQ) >> RCC_PLLCFGR_PL
 1937              		.loc 1 1185 16 view .LVU691
 1938 0590 03F50433 		add	r3, r3, #135168
 1939              	.LVL201:
1185:Drivers/STM32G4xx_HAL_Driver/Src/stm32g4xx_hal_rcc_ex.c ****         frequency = (pllvco * plln) / (((READ_BIT(RCC->PLLCFGR, RCC_PLLCFGR_PLLQ) >> RCC_PLLCFGR_PL
 1940              		.loc 1 1185 16 view .LVU692
 1941 0594 D868     		ldr	r0, [r3, #12]
 1942              	.LVL202:
1185:Drivers/STM32G4xx_HAL_Driver/Src/stm32g4xx_hal_rcc_ex.c ****         frequency = (pllvco * plln) / (((READ_BIT(RCC->PLLCFGR, RCC_PLLCFGR_PLLQ) >> RCC_PLLCFGR_PL
 1943              		.loc 1 1185 14 view .LVU693
 1944 0596 C0F30620 		ubfx	r0, r0, #8, #7
 1945              	.LVL203:
1186:Drivers/STM32G4xx_HAL_Driver/Src/stm32g4xx_hal_rcc_ex.c ****       }
 1946              		.loc 1 1186 9 is_stmt 1 view .LVU694
1186:Drivers/STM32G4xx_HAL_Driver/Src/stm32g4xx_hal_rcc_ex.c ****       }
 1947              		.loc 1 1186 29 is_stmt 0 view .LVU695
 1948 059a 02FB00F0 		mul	r0, r2, r0
 1949              	.LVL204:
1186:Drivers/STM32G4xx_HAL_Driver/Src/stm32g4xx_hal_rcc_ex.c ****       }
 1950              		.loc 1 1186 42 view .LVU696
 1951 059e DB68     		ldr	r3, [r3, #12]
 1952              	.LVL205:
1186:Drivers/STM32G4xx_HAL_Driver/Src/stm32g4xx_hal_rcc_ex.c ****       }
 1953              		.loc 1 1186 83 view .LVU697
 1954 05a0 C3F34153 		ubfx	r3, r3, #21, #2
1186:Drivers/STM32G4xx_HAL_Driver/Src/stm32g4xx_hal_rcc_ex.c ****       }
 1955              		.loc 1 1186 108 view .LVU698
 1956 05a4 0133     		adds	r3, r3, #1
1186:Drivers/STM32G4xx_HAL_Driver/Src/stm32g4xx_hal_rcc_ex.c ****       }
 1957              		.loc 1 1186 114 view .LVU699
 1958 05a6 5B00     		lsls	r3, r3, #1
1186:Drivers/STM32G4xx_HAL_Driver/Src/stm32g4xx_hal_rcc_ex.c ****       }
 1959              		.loc 1 1186 19 view .LVU700
 1960 05a8 B0FBF3F0 		udiv	r0, r0, r3
 1961              	.LVL206:
1186:Drivers/STM32G4xx_HAL_Driver/Src/stm32g4xx_hal_rcc_ex.c ****       }
 1962              		.loc 1 1186 19 view .LVU701
 1963 05ac 92E5     		b	.L52
 1964              	.L205:
 1965 05ae 00BF     		.align	2
 1966              	.L204:
 1967 05b0 00100240 		.word	1073876992
 1968              	.LVL207:
 1969              	.L180:
1204:Drivers/STM32G4xx_HAL_Driver/Src/stm32g4xx_hal_rcc_ex.c ****         {
 1970              		.loc 1 1204 9 is_stmt 1 view .LVU702
1204:Drivers/STM32G4xx_HAL_Driver/Src/stm32g4xx_hal_rcc_ex.c ****         {
 1971              		.loc 1 1204 12 is_stmt 0 view .LVU703
 1972 05b4 03F14053 		add	r3, r3, #805306368
 1973              	.LVL208:
1204:Drivers/STM32G4xx_HAL_Driver/Src/stm32g4xx_hal_rcc_ex.c ****         {
 1974              		.loc 1 1204 12 view .LVU704
 1975 05b8 03F50433 		add	r3, r3, #135168
ARM GAS  C:\Users\aniru.000\AppData\Local\Temp\ccGZAzIF.s 			page 66


 1976              	.LVL209:
1204:Drivers/STM32G4xx_HAL_Driver/Src/stm32g4xx_hal_rcc_ex.c ****         {
 1977              		.loc 1 1204 12 view .LVU705
 1978 05bc D868     		ldr	r0, [r3, #12]
 1979              	.LVL210:
1204:Drivers/STM32G4xx_HAL_Driver/Src/stm32g4xx_hal_rcc_ex.c ****         {
 1980              		.loc 1 1204 11 view .LVU706
 1981 05be 10F48030 		ands	r0, r0, #65536
 1982 05c2 3FF487AD 		beq	.L52
1207:Drivers/STM32G4xx_HAL_Driver/Src/stm32g4xx_hal_rcc_ex.c ****           pllp = READ_BIT(RCC->PLLCFGR, RCC_PLLCFGR_PLLPDIV) >> RCC_PLLCFGR_PLLPDIV_Pos;
 1983              		.loc 1 1207 11 is_stmt 1 view .LVU707
1207:Drivers/STM32G4xx_HAL_Driver/Src/stm32g4xx_hal_rcc_ex.c ****           pllp = READ_BIT(RCC->PLLCFGR, RCC_PLLCFGR_PLLPDIV) >> RCC_PLLCFGR_PLLPDIV_Pos;
 1984              		.loc 1 1207 18 is_stmt 0 view .LVU708
 1985 05c6 D868     		ldr	r0, [r3, #12]
1207:Drivers/STM32G4xx_HAL_Driver/Src/stm32g4xx_hal_rcc_ex.c ****           pllp = READ_BIT(RCC->PLLCFGR, RCC_PLLCFGR_PLLPDIV) >> RCC_PLLCFGR_PLLPDIV_Pos;
 1986              		.loc 1 1207 16 view .LVU709
 1987 05c8 C0F30620 		ubfx	r0, r0, #8, #7
 1988              	.LVL211:
1208:Drivers/STM32G4xx_HAL_Driver/Src/stm32g4xx_hal_rcc_ex.c ****           if(pllp == 0U)
 1989              		.loc 1 1208 11 is_stmt 1 view .LVU710
1208:Drivers/STM32G4xx_HAL_Driver/Src/stm32g4xx_hal_rcc_ex.c ****           if(pllp == 0U)
 1990              		.loc 1 1208 18 is_stmt 0 view .LVU711
 1991 05cc DB68     		ldr	r3, [r3, #12]
 1992              	.LVL212:
1209:Drivers/STM32G4xx_HAL_Driver/Src/stm32g4xx_hal_rcc_ex.c ****           {
 1993              		.loc 1 1209 11 is_stmt 1 view .LVU712
1209:Drivers/STM32G4xx_HAL_Driver/Src/stm32g4xx_hal_rcc_ex.c ****           {
 1994              		.loc 1 1209 13 is_stmt 0 view .LVU713
 1995 05ce DB0E     		lsrs	r3, r3, #27
 1996              	.LVL213:
1209:Drivers/STM32G4xx_HAL_Driver/Src/stm32g4xx_hal_rcc_ex.c ****           {
 1997              		.loc 1 1209 13 view .LVU714
 1998 05d0 05D1     		bne	.L118
1211:Drivers/STM32G4xx_HAL_Driver/Src/stm32g4xx_hal_rcc_ex.c ****             {
 1999              		.loc 1 1211 13 is_stmt 1 view .LVU715
1211:Drivers/STM32G4xx_HAL_Driver/Src/stm32g4xx_hal_rcc_ex.c ****             {
 2000              		.loc 1 1211 16 is_stmt 0 view .LVU716
 2001 05d2 4E4B     		ldr	r3, .L206
 2002              	.LVL214:
1211:Drivers/STM32G4xx_HAL_Driver/Src/stm32g4xx_hal_rcc_ex.c ****             {
 2003              		.loc 1 1211 16 view .LVU717
 2004 05d4 DB68     		ldr	r3, [r3, #12]
1211:Drivers/STM32G4xx_HAL_Driver/Src/stm32g4xx_hal_rcc_ex.c ****             {
 2005              		.loc 1 1211 15 view .LVU718
 2006 05d6 13F4003F 		tst	r3, #131072
 2007 05da 05D0     		beq	.L152
1213:Drivers/STM32G4xx_HAL_Driver/Src/stm32g4xx_hal_rcc_ex.c ****             }
 2008              		.loc 1 1213 20 view .LVU719
 2009 05dc 1123     		movs	r3, #17
 2010              	.L118:
 2011              	.LVL215:
1220:Drivers/STM32G4xx_HAL_Driver/Src/stm32g4xx_hal_rcc_ex.c ****         }
 2012              		.loc 1 1220 11 is_stmt 1 view .LVU720
1220:Drivers/STM32G4xx_HAL_Driver/Src/stm32g4xx_hal_rcc_ex.c ****         }
 2013              		.loc 1 1220 31 is_stmt 0 view .LVU721
 2014 05de 02FB00F0 		mul	r0, r2, r0
 2015              	.LVL216:
ARM GAS  C:\Users\aniru.000\AppData\Local\Temp\ccGZAzIF.s 			page 67


1220:Drivers/STM32G4xx_HAL_Driver/Src/stm32g4xx_hal_rcc_ex.c ****         }
 2016              		.loc 1 1220 21 view .LVU722
 2017 05e2 B0FBF3F0 		udiv	r0, r0, r3
 2018              	.LVL217:
1220:Drivers/STM32G4xx_HAL_Driver/Src/stm32g4xx_hal_rcc_ex.c ****         }
 2019              		.loc 1 1220 21 view .LVU723
 2020 05e6 75E5     		b	.L52
 2021              	.LVL218:
 2022              	.L152:
1217:Drivers/STM32G4xx_HAL_Driver/Src/stm32g4xx_hal_rcc_ex.c ****             }
 2023              		.loc 1 1217 20 view .LVU724
 2024 05e8 0723     		movs	r3, #7
 2025 05ea F8E7     		b	.L118
 2026              	.LVL219:
 2027              	.L181:
1225:Drivers/STM32G4xx_HAL_Driver/Src/stm32g4xx_hal_rcc_ex.c ****       }
 2028              		.loc 1 1225 9 is_stmt 1 view .LVU725
1225:Drivers/STM32G4xx_HAL_Driver/Src/stm32g4xx_hal_rcc_ex.c ****       }
 2029              		.loc 1 1225 21 is_stmt 0 view .LVU726
 2030 05ec FFF7FEFF 		bl	HAL_RCC_GetSysClockFreq
 2031              	.LVL220:
1225:Drivers/STM32G4xx_HAL_Driver/Src/stm32g4xx_hal_rcc_ex.c ****       }
 2032              		.loc 1 1225 21 view .LVU727
 2033 05f0 70E5     		b	.L52
 2034              	.LVL221:
 2035              	.L80:
1237:Drivers/STM32G4xx_HAL_Driver/Src/stm32g4xx_hal_rcc_ex.c ****       
 2036              		.loc 1 1237 7 is_stmt 1 view .LVU728
1237:Drivers/STM32G4xx_HAL_Driver/Src/stm32g4xx_hal_rcc_ex.c ****       
 2037              		.loc 1 1237 16 is_stmt 0 view .LVU729
 2038 05f2 464B     		ldr	r3, .L206
 2039 05f4 D3F88830 		ldr	r3, [r3, #136]
1237:Drivers/STM32G4xx_HAL_Driver/Src/stm32g4xx_hal_rcc_ex.c ****       
 2040              		.loc 1 1237 14 view .LVU730
 2041 05f8 03F04043 		and	r3, r3, #-1073741824
 2042              	.LVL222:
1239:Drivers/STM32G4xx_HAL_Driver/Src/stm32g4xx_hal_rcc_ex.c ****       {
 2043              		.loc 1 1239 7 is_stmt 1 view .LVU731
1239:Drivers/STM32G4xx_HAL_Driver/Src/stm32g4xx_hal_rcc_ex.c ****       {
 2044              		.loc 1 1239 9 is_stmt 0 view .LVU732
 2045 05fc B3F1804F 		cmp	r3, #1073741824
 2046 0600 04D0     		beq	.L198
1260:Drivers/STM32G4xx_HAL_Driver/Src/stm32g4xx_hal_rcc_ex.c ****       {
 2047              		.loc 1 1260 12 is_stmt 1 view .LVU733
1260:Drivers/STM32G4xx_HAL_Driver/Src/stm32g4xx_hal_rcc_ex.c ****       {
 2048              		.loc 1 1260 14 is_stmt 0 view .LVU734
 2049 0602 B3F1004F 		cmp	r3, #-2147483648
 2050 0606 1BD0     		beq	.L199
 686:Drivers/STM32G4xx_HAL_Driver/Src/stm32g4xx_hal_rcc_ex.c ****   uint32_t srcclk;
 2051              		.loc 1 686 12 view .LVU735
 2052 0608 0020     		movs	r0, #0
 2053              	.LVL223:
 686:Drivers/STM32G4xx_HAL_Driver/Src/stm32g4xx_hal_rcc_ex.c ****   uint32_t srcclk;
 2054              		.loc 1 686 12 view .LVU736
 2055 060a 63E5     		b	.L52
 2056              	.LVL224:
 2057              	.L198:
ARM GAS  C:\Users\aniru.000\AppData\Local\Temp\ccGZAzIF.s 			page 68


1241:Drivers/STM32G4xx_HAL_Driver/Src/stm32g4xx_hal_rcc_ex.c ****         {
 2058              		.loc 1 1241 9 is_stmt 1 view .LVU737
1241:Drivers/STM32G4xx_HAL_Driver/Src/stm32g4xx_hal_rcc_ex.c ****         {
 2059              		.loc 1 1241 12 is_stmt 0 view .LVU738
 2060 060c 03F50433 		add	r3, r3, #135168
 2061              	.LVL225:
1241:Drivers/STM32G4xx_HAL_Driver/Src/stm32g4xx_hal_rcc_ex.c ****         {
 2062              		.loc 1 1241 12 view .LVU739
 2063 0610 D868     		ldr	r0, [r3, #12]
 2064              	.LVL226:
1241:Drivers/STM32G4xx_HAL_Driver/Src/stm32g4xx_hal_rcc_ex.c ****         {
 2065              		.loc 1 1241 11 view .LVU740
 2066 0612 10F48030 		ands	r0, r0, #65536
 2067 0616 3FF45DAD 		beq	.L52
1244:Drivers/STM32G4xx_HAL_Driver/Src/stm32g4xx_hal_rcc_ex.c ****           pllp = READ_BIT(RCC->PLLCFGR, RCC_PLLCFGR_PLLPDIV) >> RCC_PLLCFGR_PLLPDIV_Pos;
 2068              		.loc 1 1244 11 is_stmt 1 view .LVU741
1244:Drivers/STM32G4xx_HAL_Driver/Src/stm32g4xx_hal_rcc_ex.c ****           pllp = READ_BIT(RCC->PLLCFGR, RCC_PLLCFGR_PLLPDIV) >> RCC_PLLCFGR_PLLPDIV_Pos;
 2069              		.loc 1 1244 18 is_stmt 0 view .LVU742
 2070 061a D868     		ldr	r0, [r3, #12]
1244:Drivers/STM32G4xx_HAL_Driver/Src/stm32g4xx_hal_rcc_ex.c ****           pllp = READ_BIT(RCC->PLLCFGR, RCC_PLLCFGR_PLLPDIV) >> RCC_PLLCFGR_PLLPDIV_Pos;
 2071              		.loc 1 1244 16 view .LVU743
 2072 061c C0F30620 		ubfx	r0, r0, #8, #7
 2073              	.LVL227:
1245:Drivers/STM32G4xx_HAL_Driver/Src/stm32g4xx_hal_rcc_ex.c ****           if(pllp == 0U)
 2074              		.loc 1 1245 11 is_stmt 1 view .LVU744
1245:Drivers/STM32G4xx_HAL_Driver/Src/stm32g4xx_hal_rcc_ex.c ****           if(pllp == 0U)
 2075              		.loc 1 1245 18 is_stmt 0 view .LVU745
 2076 0620 DB68     		ldr	r3, [r3, #12]
 2077              	.LVL228:
1246:Drivers/STM32G4xx_HAL_Driver/Src/stm32g4xx_hal_rcc_ex.c ****           {
 2078              		.loc 1 1246 11 is_stmt 1 view .LVU746
1246:Drivers/STM32G4xx_HAL_Driver/Src/stm32g4xx_hal_rcc_ex.c ****           {
 2079              		.loc 1 1246 13 is_stmt 0 view .LVU747
 2080 0622 DB0E     		lsrs	r3, r3, #27
 2081              	.LVL229:
1246:Drivers/STM32G4xx_HAL_Driver/Src/stm32g4xx_hal_rcc_ex.c ****           {
 2082              		.loc 1 1246 13 view .LVU748
 2083 0624 05D1     		bne	.L120
1248:Drivers/STM32G4xx_HAL_Driver/Src/stm32g4xx_hal_rcc_ex.c ****             {
 2084              		.loc 1 1248 13 is_stmt 1 view .LVU749
1248:Drivers/STM32G4xx_HAL_Driver/Src/stm32g4xx_hal_rcc_ex.c ****             {
 2085              		.loc 1 1248 16 is_stmt 0 view .LVU750
 2086 0626 394B     		ldr	r3, .L206
 2087              	.LVL230:
1248:Drivers/STM32G4xx_HAL_Driver/Src/stm32g4xx_hal_rcc_ex.c ****             {
 2088              		.loc 1 1248 16 view .LVU751
 2089 0628 DB68     		ldr	r3, [r3, #12]
1248:Drivers/STM32G4xx_HAL_Driver/Src/stm32g4xx_hal_rcc_ex.c ****             {
 2090              		.loc 1 1248 15 view .LVU752
 2091 062a 13F4003F 		tst	r3, #131072
 2092 062e 05D0     		beq	.L154
1250:Drivers/STM32G4xx_HAL_Driver/Src/stm32g4xx_hal_rcc_ex.c ****             }
 2093              		.loc 1 1250 20 view .LVU753
 2094 0630 1123     		movs	r3, #17
 2095              	.L120:
 2096              	.LVL231:
1257:Drivers/STM32G4xx_HAL_Driver/Src/stm32g4xx_hal_rcc_ex.c ****         }
ARM GAS  C:\Users\aniru.000\AppData\Local\Temp\ccGZAzIF.s 			page 69


 2097              		.loc 1 1257 11 is_stmt 1 view .LVU754
1257:Drivers/STM32G4xx_HAL_Driver/Src/stm32g4xx_hal_rcc_ex.c ****         }
 2098              		.loc 1 1257 31 is_stmt 0 view .LVU755
 2099 0632 02FB00F0 		mul	r0, r2, r0
 2100              	.LVL232:
1257:Drivers/STM32G4xx_HAL_Driver/Src/stm32g4xx_hal_rcc_ex.c ****         }
 2101              		.loc 1 1257 21 view .LVU756
 2102 0636 B0FBF3F0 		udiv	r0, r0, r3
 2103              	.LVL233:
1257:Drivers/STM32G4xx_HAL_Driver/Src/stm32g4xx_hal_rcc_ex.c ****         }
 2104              		.loc 1 1257 21 view .LVU757
 2105 063a 4BE5     		b	.L52
 2106              	.LVL234:
 2107              	.L154:
1254:Drivers/STM32G4xx_HAL_Driver/Src/stm32g4xx_hal_rcc_ex.c ****             }
 2108              		.loc 1 1254 20 view .LVU758
 2109 063c 0723     		movs	r3, #7
 2110 063e F8E7     		b	.L120
 2111              	.LVL235:
 2112              	.L199:
1262:Drivers/STM32G4xx_HAL_Driver/Src/stm32g4xx_hal_rcc_ex.c ****       }
 2113              		.loc 1 1262 9 is_stmt 1 view .LVU759
1262:Drivers/STM32G4xx_HAL_Driver/Src/stm32g4xx_hal_rcc_ex.c ****       }
 2114              		.loc 1 1262 21 is_stmt 0 view .LVU760
 2115 0640 FFF7FEFF 		bl	HAL_RCC_GetSysClockFreq
 2116              	.LVL236:
1262:Drivers/STM32G4xx_HAL_Driver/Src/stm32g4xx_hal_rcc_ex.c ****       }
 2117              		.loc 1 1262 21 view .LVU761
 2118 0644 46E5     		b	.L52
 2119              	.LVL237:
 2120              	.L81:
1276:Drivers/STM32G4xx_HAL_Driver/Src/stm32g4xx_hal_rcc_ex.c ****       
 2121              		.loc 1 1276 7 is_stmt 1 view .LVU762
1276:Drivers/STM32G4xx_HAL_Driver/Src/stm32g4xx_hal_rcc_ex.c ****       
 2122              		.loc 1 1276 16 is_stmt 0 view .LVU763
 2123 0646 314B     		ldr	r3, .L206
 2124 0648 D3F89C30 		ldr	r3, [r3, #156]
1276:Drivers/STM32G4xx_HAL_Driver/Src/stm32g4xx_hal_rcc_ex.c ****       
 2125              		.loc 1 1276 14 view .LVU764
 2126 064c 03F44013 		and	r3, r3, #3145728
 2127              	.LVL238:
1278:Drivers/STM32G4xx_HAL_Driver/Src/stm32g4xx_hal_rcc_ex.c ****       {
 2128              		.loc 1 1278 7 is_stmt 1 view .LVU765
1278:Drivers/STM32G4xx_HAL_Driver/Src/stm32g4xx_hal_rcc_ex.c ****       {
 2129              		.loc 1 1278 9 is_stmt 0 view .LVU766
 2130 0650 B3F5001F 		cmp	r3, #2097152
 2131 0654 05D0     		beq	.L200
1284:Drivers/STM32G4xx_HAL_Driver/Src/stm32g4xx_hal_rcc_ex.c ****       {
 2132              		.loc 1 1284 12 is_stmt 1 view .LVU767
1284:Drivers/STM32G4xx_HAL_Driver/Src/stm32g4xx_hal_rcc_ex.c ****       {
 2133              		.loc 1 1284 14 is_stmt 0 view .LVU768
 2134 0656 B3F5801F 		cmp	r3, #1048576
 2135 065a 55D0     		beq	.L156
1288:Drivers/STM32G4xx_HAL_Driver/Src/stm32g4xx_hal_rcc_ex.c ****       {
 2136              		.loc 1 1288 12 is_stmt 1 view .LVU769
1288:Drivers/STM32G4xx_HAL_Driver/Src/stm32g4xx_hal_rcc_ex.c ****       {
 2137              		.loc 1 1288 14 is_stmt 0 view .LVU770
ARM GAS  C:\Users\aniru.000\AppData\Local\Temp\ccGZAzIF.s 			page 70


 2138 065c 7BB1     		cbz	r3, .L201
 686:Drivers/STM32G4xx_HAL_Driver/Src/stm32g4xx_hal_rcc_ex.c ****   uint32_t srcclk;
 2139              		.loc 1 686 12 view .LVU771
 2140 065e 0020     		movs	r0, #0
 2141              	.LVL239:
1305:Drivers/STM32G4xx_HAL_Driver/Src/stm32g4xx_hal_rcc_ex.c **** }
 2142              		.loc 1 1305 3 is_stmt 1 view .LVU772
1305:Drivers/STM32G4xx_HAL_Driver/Src/stm32g4xx_hal_rcc_ex.c **** }
 2143              		.loc 1 1305 9 is_stmt 0 view .LVU773
 2144 0660 38E5     		b	.L52
 2145              	.LVL240:
 2146              	.L200:
1281:Drivers/STM32G4xx_HAL_Driver/Src/stm32g4xx_hal_rcc_ex.c ****         frequency = (pllvco * plln) / (((READ_BIT(RCC->PLLCFGR, RCC_PLLCFGR_PLLQ) >> RCC_PLLCFGR_PL
 2147              		.loc 1 1281 9 is_stmt 1 view .LVU774
1281:Drivers/STM32G4xx_HAL_Driver/Src/stm32g4xx_hal_rcc_ex.c ****         frequency = (pllvco * plln) / (((READ_BIT(RCC->PLLCFGR, RCC_PLLCFGR_PLLQ) >> RCC_PLLCFGR_PL
 2148              		.loc 1 1281 16 is_stmt 0 view .LVU775
 2149 0662 2A49     		ldr	r1, .L206
 2150 0664 CB68     		ldr	r3, [r1, #12]
 2151              	.LVL241:
1281:Drivers/STM32G4xx_HAL_Driver/Src/stm32g4xx_hal_rcc_ex.c ****         frequency = (pllvco * plln) / (((READ_BIT(RCC->PLLCFGR, RCC_PLLCFGR_PLLQ) >> RCC_PLLCFGR_PL
 2152              		.loc 1 1281 14 view .LVU776
 2153 0666 C3F30623 		ubfx	r3, r3, #8, #7
 2154              	.LVL242:
1282:Drivers/STM32G4xx_HAL_Driver/Src/stm32g4xx_hal_rcc_ex.c ****       }
 2155              		.loc 1 1282 9 is_stmt 1 view .LVU777
1282:Drivers/STM32G4xx_HAL_Driver/Src/stm32g4xx_hal_rcc_ex.c ****       }
 2156              		.loc 1 1282 29 is_stmt 0 view .LVU778
 2157 066a 03FB02F2 		mul	r2, r3, r2
 2158              	.LVL243:
1282:Drivers/STM32G4xx_HAL_Driver/Src/stm32g4xx_hal_rcc_ex.c ****       }
 2159              		.loc 1 1282 42 view .LVU779
 2160 066e C868     		ldr	r0, [r1, #12]
 2161              	.LVL244:
1282:Drivers/STM32G4xx_HAL_Driver/Src/stm32g4xx_hal_rcc_ex.c ****       }
 2162              		.loc 1 1282 83 view .LVU780
 2163 0670 C0F34150 		ubfx	r0, r0, #21, #2
1282:Drivers/STM32G4xx_HAL_Driver/Src/stm32g4xx_hal_rcc_ex.c ****       }
 2164              		.loc 1 1282 108 view .LVU781
 2165 0674 0130     		adds	r0, r0, #1
1282:Drivers/STM32G4xx_HAL_Driver/Src/stm32g4xx_hal_rcc_ex.c ****       }
 2166              		.loc 1 1282 114 view .LVU782
 2167 0676 4000     		lsls	r0, r0, #1
1282:Drivers/STM32G4xx_HAL_Driver/Src/stm32g4xx_hal_rcc_ex.c ****       }
 2168              		.loc 1 1282 19 view .LVU783
 2169 0678 B2FBF0F0 		udiv	r0, r2, r0
 2170              	.LVL245:
1282:Drivers/STM32G4xx_HAL_Driver/Src/stm32g4xx_hal_rcc_ex.c ****       }
 2171              		.loc 1 1282 19 view .LVU784
 2172 067c 2AE5     		b	.L52
 2173              	.LVL246:
 2174              	.L201:
1290:Drivers/STM32G4xx_HAL_Driver/Src/stm32g4xx_hal_rcc_ex.c ****       }
 2175              		.loc 1 1290 9 is_stmt 1 view .LVU785
1290:Drivers/STM32G4xx_HAL_Driver/Src/stm32g4xx_hal_rcc_ex.c ****       }
 2176              		.loc 1 1290 21 is_stmt 0 view .LVU786
 2177 067e FFF7FEFF 		bl	HAL_RCC_GetSysClockFreq
 2178              	.LVL247:
ARM GAS  C:\Users\aniru.000\AppData\Local\Temp\ccGZAzIF.s 			page 71


1290:Drivers/STM32G4xx_HAL_Driver/Src/stm32g4xx_hal_rcc_ex.c ****       }
 2179              		.loc 1 1290 21 view .LVU787
 2180 0682 27E5     		b	.L52
 2181              	.LVL248:
 2182              	.L122:
 701:Drivers/STM32G4xx_HAL_Driver/Src/stm32g4xx_hal_rcc_ex.c ****     }
 2183              		.loc 1 701 17 view .LVU788
 2184 0684 4FF40040 		mov	r0, #32768
 2185              	.LVL249:
 701:Drivers/STM32G4xx_HAL_Driver/Src/stm32g4xx_hal_rcc_ex.c ****     }
 2186              		.loc 1 701 17 view .LVU789
 2187 0688 24E5     		b	.L52
 2188              	.LVL250:
 2189              	.L123:
 706:Drivers/STM32G4xx_HAL_Driver/Src/stm32g4xx_hal_rcc_ex.c ****     }
 2190              		.loc 1 706 17 view .LVU790
 2191 068a 4FF4FA40 		mov	r0, #32000
 2192              	.LVL251:
 706:Drivers/STM32G4xx_HAL_Driver/Src/stm32g4xx_hal_rcc_ex.c ****     }
 2193              		.loc 1 706 17 view .LVU791
 2194 068e 21E5     		b	.L52
 2195              	.L124:
 711:Drivers/STM32G4xx_HAL_Driver/Src/stm32g4xx_hal_rcc_ex.c ****     }
 2196              		.loc 1 711 17 view .LVU792
 2197 0690 1F48     		ldr	r0, .L206+4
 2198 0692 1FE5     		b	.L52
 2199              	.LVL252:
 2200              	.L126:
 771:Drivers/STM32G4xx_HAL_Driver/Src/stm32g4xx_hal_rcc_ex.c ****       }
 2201              		.loc 1 771 19 view .LVU793
 2202 0694 1F48     		ldr	r0, .L206+8
 2203              	.LVL253:
 771:Drivers/STM32G4xx_HAL_Driver/Src/stm32g4xx_hal_rcc_ex.c ****       }
 2204              		.loc 1 771 19 view .LVU794
 2205 0696 1DE5     		b	.L52
 2206              	.L127:
 775:Drivers/STM32G4xx_HAL_Driver/Src/stm32g4xx_hal_rcc_ex.c ****       }
 2207              		.loc 1 775 19 view .LVU795
 2208 0698 4FF40040 		mov	r0, #32768
 2209 069c 1AE5     		b	.L52
 2210              	.LVL254:
 2211              	.L128:
 798:Drivers/STM32G4xx_HAL_Driver/Src/stm32g4xx_hal_rcc_ex.c ****       }
 2212              		.loc 1 798 19 view .LVU796
 2213 069e 1D48     		ldr	r0, .L206+8
 2214              	.LVL255:
 798:Drivers/STM32G4xx_HAL_Driver/Src/stm32g4xx_hal_rcc_ex.c ****       }
 2215              		.loc 1 798 19 view .LVU797
 2216 06a0 18E5     		b	.L52
 2217              	.L129:
 802:Drivers/STM32G4xx_HAL_Driver/Src/stm32g4xx_hal_rcc_ex.c ****       }
 2218              		.loc 1 802 19 view .LVU798
 2219 06a2 4FF40040 		mov	r0, #32768
 2220 06a6 15E5     		b	.L52
 2221              	.LVL256:
 2222              	.L130:
 826:Drivers/STM32G4xx_HAL_Driver/Src/stm32g4xx_hal_rcc_ex.c ****       }
ARM GAS  C:\Users\aniru.000\AppData\Local\Temp\ccGZAzIF.s 			page 72


 2223              		.loc 1 826 19 view .LVU799
 2224 06a8 1A48     		ldr	r0, .L206+8
 2225              	.LVL257:
 826:Drivers/STM32G4xx_HAL_Driver/Src/stm32g4xx_hal_rcc_ex.c ****       }
 2226              		.loc 1 826 19 view .LVU800
 2227 06aa 13E5     		b	.L52
 2228              	.L131:
 830:Drivers/STM32G4xx_HAL_Driver/Src/stm32g4xx_hal_rcc_ex.c ****       }
 2229              		.loc 1 830 19 view .LVU801
 2230 06ac 4FF40040 		mov	r0, #32768
 2231 06b0 10E5     		b	.L52
 2232              	.LVL258:
 2233              	.L132:
 855:Drivers/STM32G4xx_HAL_Driver/Src/stm32g4xx_hal_rcc_ex.c ****       }
 2234              		.loc 1 855 19 view .LVU802
 2235 06b2 1848     		ldr	r0, .L206+8
 2236              	.LVL259:
 855:Drivers/STM32G4xx_HAL_Driver/Src/stm32g4xx_hal_rcc_ex.c ****       }
 2237              		.loc 1 855 19 view .LVU803
 2238 06b4 0EE5     		b	.L52
 2239              	.L133:
 859:Drivers/STM32G4xx_HAL_Driver/Src/stm32g4xx_hal_rcc_ex.c ****       }
 2240              		.loc 1 859 19 view .LVU804
 2241 06b6 4FF40040 		mov	r0, #32768
 2242 06ba 0BE5     		b	.L52
 2243              	.LVL260:
 2244              	.L134:
 884:Drivers/STM32G4xx_HAL_Driver/Src/stm32g4xx_hal_rcc_ex.c ****       }
 2245              		.loc 1 884 19 view .LVU805
 2246 06bc 1548     		ldr	r0, .L206+8
 2247              	.LVL261:
 884:Drivers/STM32G4xx_HAL_Driver/Src/stm32g4xx_hal_rcc_ex.c ****       }
 2248              		.loc 1 884 19 view .LVU806
 2249 06be 09E5     		b	.L52
 2250              	.L135:
 888:Drivers/STM32G4xx_HAL_Driver/Src/stm32g4xx_hal_rcc_ex.c ****       }
 2251              		.loc 1 888 19 view .LVU807
 2252 06c0 4FF40040 		mov	r0, #32768
 2253 06c4 06E5     		b	.L52
 2254              	.LVL262:
 2255              	.L136:
 912:Drivers/STM32G4xx_HAL_Driver/Src/stm32g4xx_hal_rcc_ex.c ****       }
 2256              		.loc 1 912 19 view .LVU808
 2257 06c6 1348     		ldr	r0, .L206+8
 2258              	.LVL263:
 912:Drivers/STM32G4xx_HAL_Driver/Src/stm32g4xx_hal_rcc_ex.c ****       }
 2259              		.loc 1 912 19 view .LVU809
 2260 06c8 04E5     		b	.L52
 2261              	.L137:
 916:Drivers/STM32G4xx_HAL_Driver/Src/stm32g4xx_hal_rcc_ex.c ****       }
 2262              		.loc 1 916 19 view .LVU810
 2263 06ca 4FF40040 		mov	r0, #32768
 2264 06ce 01E5     		b	.L52
 2265              	.L138:
 939:Drivers/STM32G4xx_HAL_Driver/Src/stm32g4xx_hal_rcc_ex.c ****       }
 2266              		.loc 1 939 19 view .LVU811
 2267 06d0 1048     		ldr	r0, .L206+8
ARM GAS  C:\Users\aniru.000\AppData\Local\Temp\ccGZAzIF.s 			page 73


 2268 06d2 FFE4     		b	.L52
 2269              	.L139:
 962:Drivers/STM32G4xx_HAL_Driver/Src/stm32g4xx_hal_rcc_ex.c ****       }
 2270              		.loc 1 962 19 view .LVU812
 2271 06d4 0F48     		ldr	r0, .L206+8
 2272 06d6 FDE4     		b	.L52
 2273              	.L140:
 987:Drivers/STM32G4xx_HAL_Driver/Src/stm32g4xx_hal_rcc_ex.c ****       }
 2274              		.loc 1 987 19 view .LVU813
 2275 06d8 0E48     		ldr	r0, .L206+8
 2276 06da FBE4     		b	.L52
 2277              	.LVL264:
 2278              	.L141:
1035:Drivers/STM32G4xx_HAL_Driver/Src/stm32g4xx_hal_rcc_ex.c ****       }
 2279              		.loc 1 1035 19 view .LVU814
 2280 06dc 4FF4FA40 		mov	r0, #32000
 2281              	.LVL265:
1035:Drivers/STM32G4xx_HAL_Driver/Src/stm32g4xx_hal_rcc_ex.c ****       }
 2282              		.loc 1 1035 19 view .LVU815
 2283 06e0 F8E4     		b	.L52
 2284              	.LVL266:
 2285              	.L142:
1039:Drivers/STM32G4xx_HAL_Driver/Src/stm32g4xx_hal_rcc_ex.c ****       }
 2286              		.loc 1 1039 19 view .LVU816
 2287 06e2 0C48     		ldr	r0, .L206+8
 2288              	.LVL267:
1039:Drivers/STM32G4xx_HAL_Driver/Src/stm32g4xx_hal_rcc_ex.c ****       }
 2289              		.loc 1 1039 19 view .LVU817
 2290 06e4 F6E4     		b	.L52
 2291              	.L143:
1043:Drivers/STM32G4xx_HAL_Driver/Src/stm32g4xx_hal_rcc_ex.c ****       }
 2292              		.loc 1 1043 19 view .LVU818
 2293 06e6 4FF40040 		mov	r0, #32768
 2294 06ea F3E4     		b	.L52
 2295              	.LVL268:
 2296              	.L144:
1074:Drivers/STM32G4xx_HAL_Driver/Src/stm32g4xx_hal_rcc_ex.c ****       }
 2297              		.loc 1 1074 19 view .LVU819
 2298 06ec 0A48     		ldr	r0, .L206+12
 2299              	.LVL269:
1074:Drivers/STM32G4xx_HAL_Driver/Src/stm32g4xx_hal_rcc_ex.c ****       }
 2300              		.loc 1 1074 19 view .LVU820
 2301 06ee F1E4     		b	.L52
 2302              	.LVL270:
 2303              	.L145:
1078:Drivers/STM32G4xx_HAL_Driver/Src/stm32g4xx_hal_rcc_ex.c ****       }
 2304              		.loc 1 1078 19 view .LVU821
 2305 06f0 0848     		ldr	r0, .L206+8
 2306 06f2 EFE4     		b	.L52
 2307              	.LVL271:
 2308              	.L146:
1110:Drivers/STM32G4xx_HAL_Driver/Src/stm32g4xx_hal_rcc_ex.c ****       }      
 2309              		.loc 1 1110 19 view .LVU822
 2310 06f4 0848     		ldr	r0, .L206+12
 2311              	.LVL272:
1110:Drivers/STM32G4xx_HAL_Driver/Src/stm32g4xx_hal_rcc_ex.c ****       }      
 2312              		.loc 1 1110 19 view .LVU823
ARM GAS  C:\Users\aniru.000\AppData\Local\Temp\ccGZAzIF.s 			page 74


 2313 06f6 EDE4     		b	.L52
 2314              	.LVL273:
 2315              	.L147:
1114:Drivers/STM32G4xx_HAL_Driver/Src/stm32g4xx_hal_rcc_ex.c ****       }
 2316              		.loc 1 1114 19 view .LVU824
 2317 06f8 0648     		ldr	r0, .L206+8
 2318 06fa EBE4     		b	.L52
 2319              	.LVL274:
 2320              	.L148:
1135:Drivers/STM32G4xx_HAL_Driver/Src/stm32g4xx_hal_rcc_ex.c ****       }
 2321              		.loc 1 1135 19 view .LVU825
 2322 06fc 0748     		ldr	r0, .L206+16
 2323              	.LVL275:
1135:Drivers/STM32G4xx_HAL_Driver/Src/stm32g4xx_hal_rcc_ex.c ****       }
 2324              		.loc 1 1135 19 view .LVU826
 2325 06fe E9E4     		b	.L52
 2326              	.LVL276:
 2327              	.L150:
1168:Drivers/STM32G4xx_HAL_Driver/Src/stm32g4xx_hal_rcc_ex.c ****       }
 2328              		.loc 1 1168 19 view .LVU827
 2329 0700 0748     		ldr	r0, .L206+20
 2330 0702 E7E4     		b	.L52
 2331              	.L151:
1190:Drivers/STM32G4xx_HAL_Driver/Src/stm32g4xx_hal_rcc_ex.c ****       }
 2332              		.loc 1 1190 19 view .LVU828
 2333 0704 0648     		ldr	r0, .L206+20
 2334 0706 E5E4     		b	.L52
 2335              	.LVL277:
 2336              	.L156:
1286:Drivers/STM32G4xx_HAL_Driver/Src/stm32g4xx_hal_rcc_ex.c ****       }      
 2337              		.loc 1 1286 19 view .LVU829
 2338 0708 0248     		ldr	r0, .L206+8
 2339              	.LVL278:
1286:Drivers/STM32G4xx_HAL_Driver/Src/stm32g4xx_hal_rcc_ex.c ****       }      
 2340              		.loc 1 1286 19 view .LVU830
 2341 070a E3E4     		b	.L52
 2342              	.L207:
 2343              		.align	2
 2344              	.L206:
 2345 070c 00100240 		.word	1073876992
 2346 0710 90D00300 		.word	250000
 2347 0714 0024F400 		.word	16000000
 2348 0718 0080BB00 		.word	12288000
 2349 071c 00127A00 		.word	8000000
 2350 0720 006CDC02 		.word	48000000
 2351              		.cfi_endproc
 2352              	.LFE134:
 2354              		.section	.text.HAL_RCCEx_EnableLSECSS,"ax",%progbits
 2355              		.align	1
 2356              		.global	HAL_RCCEx_EnableLSECSS
 2357              		.syntax unified
 2358              		.thumb
 2359              		.thumb_func
 2361              	HAL_RCCEx_EnableLSECSS:
 2362              	.LFB135:
1307:Drivers/STM32G4xx_HAL_Driver/Src/stm32g4xx_hal_rcc_ex.c **** 
1308:Drivers/STM32G4xx_HAL_Driver/Src/stm32g4xx_hal_rcc_ex.c **** /**
ARM GAS  C:\Users\aniru.000\AppData\Local\Temp\ccGZAzIF.s 			page 75


1309:Drivers/STM32G4xx_HAL_Driver/Src/stm32g4xx_hal_rcc_ex.c ****   * @}
1310:Drivers/STM32G4xx_HAL_Driver/Src/stm32g4xx_hal_rcc_ex.c ****   */
1311:Drivers/STM32G4xx_HAL_Driver/Src/stm32g4xx_hal_rcc_ex.c **** 
1312:Drivers/STM32G4xx_HAL_Driver/Src/stm32g4xx_hal_rcc_ex.c **** /** @defgroup RCCEx_Exported_Functions_Group2 Extended Clock management functions
1313:Drivers/STM32G4xx_HAL_Driver/Src/stm32g4xx_hal_rcc_ex.c ****  *  @brief  Extended Clock management functions
1314:Drivers/STM32G4xx_HAL_Driver/Src/stm32g4xx_hal_rcc_ex.c ****  *
1315:Drivers/STM32G4xx_HAL_Driver/Src/stm32g4xx_hal_rcc_ex.c **** @verbatim
1316:Drivers/STM32G4xx_HAL_Driver/Src/stm32g4xx_hal_rcc_ex.c ****  ===============================================================================
1317:Drivers/STM32G4xx_HAL_Driver/Src/stm32g4xx_hal_rcc_ex.c ****                 ##### Extended clock management functions  #####
1318:Drivers/STM32G4xx_HAL_Driver/Src/stm32g4xx_hal_rcc_ex.c ****  ===============================================================================
1319:Drivers/STM32G4xx_HAL_Driver/Src/stm32g4xx_hal_rcc_ex.c ****     [..]
1320:Drivers/STM32G4xx_HAL_Driver/Src/stm32g4xx_hal_rcc_ex.c ****     This subsection provides a set of functions allowing to control the
1321:Drivers/STM32G4xx_HAL_Driver/Src/stm32g4xx_hal_rcc_ex.c ****     activation or deactivation of LSE CSS,
1322:Drivers/STM32G4xx_HAL_Driver/Src/stm32g4xx_hal_rcc_ex.c ****     Low speed clock output and clock after wake-up from STOP mode.
1323:Drivers/STM32G4xx_HAL_Driver/Src/stm32g4xx_hal_rcc_ex.c **** @endverbatim
1324:Drivers/STM32G4xx_HAL_Driver/Src/stm32g4xx_hal_rcc_ex.c ****   * @{
1325:Drivers/STM32G4xx_HAL_Driver/Src/stm32g4xx_hal_rcc_ex.c ****   */
1326:Drivers/STM32G4xx_HAL_Driver/Src/stm32g4xx_hal_rcc_ex.c **** 
1327:Drivers/STM32G4xx_HAL_Driver/Src/stm32g4xx_hal_rcc_ex.c **** /**
1328:Drivers/STM32G4xx_HAL_Driver/Src/stm32g4xx_hal_rcc_ex.c ****   * @brief  Enable the LSE Clock Security System.
1329:Drivers/STM32G4xx_HAL_Driver/Src/stm32g4xx_hal_rcc_ex.c ****   * @note   Prior to enable the LSE Clock Security System, LSE oscillator is to be enabled
1330:Drivers/STM32G4xx_HAL_Driver/Src/stm32g4xx_hal_rcc_ex.c ****   *         with HAL_RCC_OscConfig() and the LSE oscillator clock is to be selected as RTC
1331:Drivers/STM32G4xx_HAL_Driver/Src/stm32g4xx_hal_rcc_ex.c ****   *         clock with HAL_RCCEx_PeriphCLKConfig().
1332:Drivers/STM32G4xx_HAL_Driver/Src/stm32g4xx_hal_rcc_ex.c ****   * @retval None
1333:Drivers/STM32G4xx_HAL_Driver/Src/stm32g4xx_hal_rcc_ex.c ****   */
1334:Drivers/STM32G4xx_HAL_Driver/Src/stm32g4xx_hal_rcc_ex.c **** void HAL_RCCEx_EnableLSECSS(void)
1335:Drivers/STM32G4xx_HAL_Driver/Src/stm32g4xx_hal_rcc_ex.c **** {
 2363              		.loc 1 1335 1 is_stmt 1 view -0
 2364              		.cfi_startproc
 2365              		@ args = 0, pretend = 0, frame = 0
 2366              		@ frame_needed = 0, uses_anonymous_args = 0
 2367              		@ link register save eliminated.
1336:Drivers/STM32G4xx_HAL_Driver/Src/stm32g4xx_hal_rcc_ex.c ****   SET_BIT(RCC->BDCR, RCC_BDCR_LSECSSON) ;
 2368              		.loc 1 1336 3 view .LVU832
 2369 0000 034A     		ldr	r2, .L209
 2370 0002 D2F89030 		ldr	r3, [r2, #144]
 2371 0006 43F02003 		orr	r3, r3, #32
 2372 000a C2F89030 		str	r3, [r2, #144]
1337:Drivers/STM32G4xx_HAL_Driver/Src/stm32g4xx_hal_rcc_ex.c **** }
 2373              		.loc 1 1337 1 is_stmt 0 view .LVU833
 2374 000e 7047     		bx	lr
 2375              	.L210:
 2376              		.align	2
 2377              	.L209:
 2378 0010 00100240 		.word	1073876992
 2379              		.cfi_endproc
 2380              	.LFE135:
 2382              		.section	.text.HAL_RCCEx_DisableLSECSS,"ax",%progbits
 2383              		.align	1
 2384              		.global	HAL_RCCEx_DisableLSECSS
 2385              		.syntax unified
 2386              		.thumb
 2387              		.thumb_func
 2389              	HAL_RCCEx_DisableLSECSS:
 2390              	.LFB136:
1338:Drivers/STM32G4xx_HAL_Driver/Src/stm32g4xx_hal_rcc_ex.c **** 
1339:Drivers/STM32G4xx_HAL_Driver/Src/stm32g4xx_hal_rcc_ex.c **** /**
ARM GAS  C:\Users\aniru.000\AppData\Local\Temp\ccGZAzIF.s 			page 76


1340:Drivers/STM32G4xx_HAL_Driver/Src/stm32g4xx_hal_rcc_ex.c ****   * @brief  Disable the LSE Clock Security System.
1341:Drivers/STM32G4xx_HAL_Driver/Src/stm32g4xx_hal_rcc_ex.c ****   * @note   LSE Clock Security System can only be disabled after a LSE failure detection.
1342:Drivers/STM32G4xx_HAL_Driver/Src/stm32g4xx_hal_rcc_ex.c ****   * @retval None
1343:Drivers/STM32G4xx_HAL_Driver/Src/stm32g4xx_hal_rcc_ex.c ****   */
1344:Drivers/STM32G4xx_HAL_Driver/Src/stm32g4xx_hal_rcc_ex.c **** void HAL_RCCEx_DisableLSECSS(void)
1345:Drivers/STM32G4xx_HAL_Driver/Src/stm32g4xx_hal_rcc_ex.c **** {
 2391              		.loc 1 1345 1 is_stmt 1 view -0
 2392              		.cfi_startproc
 2393              		@ args = 0, pretend = 0, frame = 0
 2394              		@ frame_needed = 0, uses_anonymous_args = 0
 2395              		@ link register save eliminated.
1346:Drivers/STM32G4xx_HAL_Driver/Src/stm32g4xx_hal_rcc_ex.c ****   CLEAR_BIT(RCC->BDCR, RCC_BDCR_LSECSSON) ;
 2396              		.loc 1 1346 3 view .LVU835
 2397 0000 054B     		ldr	r3, .L212
 2398 0002 D3F89020 		ldr	r2, [r3, #144]
 2399 0006 22F02002 		bic	r2, r2, #32
 2400 000a C3F89020 		str	r2, [r3, #144]
1347:Drivers/STM32G4xx_HAL_Driver/Src/stm32g4xx_hal_rcc_ex.c **** 
1348:Drivers/STM32G4xx_HAL_Driver/Src/stm32g4xx_hal_rcc_ex.c ****   /* Disable LSE CSS IT if any */
1349:Drivers/STM32G4xx_HAL_Driver/Src/stm32g4xx_hal_rcc_ex.c ****   __HAL_RCC_DISABLE_IT(RCC_IT_LSECSS);
 2401              		.loc 1 1349 3 view .LVU836
 2402 000e 9A69     		ldr	r2, [r3, #24]
 2403 0010 22F40072 		bic	r2, r2, #512
 2404 0014 9A61     		str	r2, [r3, #24]
1350:Drivers/STM32G4xx_HAL_Driver/Src/stm32g4xx_hal_rcc_ex.c **** }
 2405              		.loc 1 1350 1 is_stmt 0 view .LVU837
 2406 0016 7047     		bx	lr
 2407              	.L213:
 2408              		.align	2
 2409              	.L212:
 2410 0018 00100240 		.word	1073876992
 2411              		.cfi_endproc
 2412              	.LFE136:
 2414              		.section	.text.HAL_RCCEx_EnableLSECSS_IT,"ax",%progbits
 2415              		.align	1
 2416              		.global	HAL_RCCEx_EnableLSECSS_IT
 2417              		.syntax unified
 2418              		.thumb
 2419              		.thumb_func
 2421              	HAL_RCCEx_EnableLSECSS_IT:
 2422              	.LFB137:
1351:Drivers/STM32G4xx_HAL_Driver/Src/stm32g4xx_hal_rcc_ex.c **** 
1352:Drivers/STM32G4xx_HAL_Driver/Src/stm32g4xx_hal_rcc_ex.c **** /**
1353:Drivers/STM32G4xx_HAL_Driver/Src/stm32g4xx_hal_rcc_ex.c ****   * @brief  Enable the LSE Clock Security System Interrupt & corresponding EXTI line.
1354:Drivers/STM32G4xx_HAL_Driver/Src/stm32g4xx_hal_rcc_ex.c ****   * @note   LSE Clock Security System Interrupt is mapped on RTC EXTI line 19
1355:Drivers/STM32G4xx_HAL_Driver/Src/stm32g4xx_hal_rcc_ex.c ****   * @retval None
1356:Drivers/STM32G4xx_HAL_Driver/Src/stm32g4xx_hal_rcc_ex.c ****   */
1357:Drivers/STM32G4xx_HAL_Driver/Src/stm32g4xx_hal_rcc_ex.c **** void HAL_RCCEx_EnableLSECSS_IT(void)
1358:Drivers/STM32G4xx_HAL_Driver/Src/stm32g4xx_hal_rcc_ex.c **** {
 2423              		.loc 1 1358 1 is_stmt 1 view -0
 2424              		.cfi_startproc
 2425              		@ args = 0, pretend = 0, frame = 0
 2426              		@ frame_needed = 0, uses_anonymous_args = 0
 2427              		@ link register save eliminated.
1359:Drivers/STM32G4xx_HAL_Driver/Src/stm32g4xx_hal_rcc_ex.c ****   /* Enable LSE CSS */
1360:Drivers/STM32G4xx_HAL_Driver/Src/stm32g4xx_hal_rcc_ex.c ****   SET_BIT(RCC->BDCR, RCC_BDCR_LSECSSON) ;
 2428              		.loc 1 1360 3 view .LVU839
ARM GAS  C:\Users\aniru.000\AppData\Local\Temp\ccGZAzIF.s 			page 77


 2429 0000 0A4B     		ldr	r3, .L215
 2430 0002 D3F89020 		ldr	r2, [r3, #144]
 2431 0006 42F02002 		orr	r2, r2, #32
 2432 000a C3F89020 		str	r2, [r3, #144]
1361:Drivers/STM32G4xx_HAL_Driver/Src/stm32g4xx_hal_rcc_ex.c **** 
1362:Drivers/STM32G4xx_HAL_Driver/Src/stm32g4xx_hal_rcc_ex.c ****   /* Enable LSE CSS IT */
1363:Drivers/STM32G4xx_HAL_Driver/Src/stm32g4xx_hal_rcc_ex.c ****   __HAL_RCC_ENABLE_IT(RCC_IT_LSECSS);
 2433              		.loc 1 1363 3 view .LVU840
 2434 000e 9A69     		ldr	r2, [r3, #24]
 2435 0010 42F40072 		orr	r2, r2, #512
 2436 0014 9A61     		str	r2, [r3, #24]
1364:Drivers/STM32G4xx_HAL_Driver/Src/stm32g4xx_hal_rcc_ex.c **** 
1365:Drivers/STM32G4xx_HAL_Driver/Src/stm32g4xx_hal_rcc_ex.c ****   /* Enable IT on EXTI Line 19 */
1366:Drivers/STM32G4xx_HAL_Driver/Src/stm32g4xx_hal_rcc_ex.c ****   __HAL_RCC_LSECSS_EXTI_ENABLE_IT();
 2437              		.loc 1 1366 3 view .LVU841
 2438 0016 A3F58633 		sub	r3, r3, #68608
 2439 001a 1A68     		ldr	r2, [r3]
 2440 001c 42F40022 		orr	r2, r2, #524288
 2441 0020 1A60     		str	r2, [r3]
1367:Drivers/STM32G4xx_HAL_Driver/Src/stm32g4xx_hal_rcc_ex.c ****   __HAL_RCC_LSECSS_EXTI_ENABLE_RISING_EDGE();
 2442              		.loc 1 1367 3 view .LVU842
 2443 0022 9A68     		ldr	r2, [r3, #8]
 2444 0024 42F40022 		orr	r2, r2, #524288
 2445 0028 9A60     		str	r2, [r3, #8]
1368:Drivers/STM32G4xx_HAL_Driver/Src/stm32g4xx_hal_rcc_ex.c **** }
 2446              		.loc 1 1368 1 is_stmt 0 view .LVU843
 2447 002a 7047     		bx	lr
 2448              	.L216:
 2449              		.align	2
 2450              	.L215:
 2451 002c 00100240 		.word	1073876992
 2452              		.cfi_endproc
 2453              	.LFE137:
 2455              		.section	.text.HAL_RCCEx_LSECSS_Callback,"ax",%progbits
 2456              		.align	1
 2457              		.weak	HAL_RCCEx_LSECSS_Callback
 2458              		.syntax unified
 2459              		.thumb
 2460              		.thumb_func
 2462              	HAL_RCCEx_LSECSS_Callback:
 2463              	.LFB139:
1369:Drivers/STM32G4xx_HAL_Driver/Src/stm32g4xx_hal_rcc_ex.c **** 
1370:Drivers/STM32G4xx_HAL_Driver/Src/stm32g4xx_hal_rcc_ex.c **** /**
1371:Drivers/STM32G4xx_HAL_Driver/Src/stm32g4xx_hal_rcc_ex.c ****   * @brief Handle the RCC LSE Clock Security System interrupt request.
1372:Drivers/STM32G4xx_HAL_Driver/Src/stm32g4xx_hal_rcc_ex.c ****   * @retval None
1373:Drivers/STM32G4xx_HAL_Driver/Src/stm32g4xx_hal_rcc_ex.c ****   */
1374:Drivers/STM32G4xx_HAL_Driver/Src/stm32g4xx_hal_rcc_ex.c **** void HAL_RCCEx_LSECSS_IRQHandler(void)
1375:Drivers/STM32G4xx_HAL_Driver/Src/stm32g4xx_hal_rcc_ex.c **** {
1376:Drivers/STM32G4xx_HAL_Driver/Src/stm32g4xx_hal_rcc_ex.c ****   /* Check RCC LSE CSSF flag  */
1377:Drivers/STM32G4xx_HAL_Driver/Src/stm32g4xx_hal_rcc_ex.c ****   if(__HAL_RCC_GET_IT(RCC_IT_LSECSS))
1378:Drivers/STM32G4xx_HAL_Driver/Src/stm32g4xx_hal_rcc_ex.c ****   {
1379:Drivers/STM32G4xx_HAL_Driver/Src/stm32g4xx_hal_rcc_ex.c ****     /* RCC LSE Clock Security System interrupt user callback */
1380:Drivers/STM32G4xx_HAL_Driver/Src/stm32g4xx_hal_rcc_ex.c ****     HAL_RCCEx_LSECSS_Callback();
1381:Drivers/STM32G4xx_HAL_Driver/Src/stm32g4xx_hal_rcc_ex.c **** 
1382:Drivers/STM32G4xx_HAL_Driver/Src/stm32g4xx_hal_rcc_ex.c ****     /* Clear RCC LSE CSS pending bit */
1383:Drivers/STM32G4xx_HAL_Driver/Src/stm32g4xx_hal_rcc_ex.c ****     __HAL_RCC_CLEAR_IT(RCC_IT_LSECSS);
1384:Drivers/STM32G4xx_HAL_Driver/Src/stm32g4xx_hal_rcc_ex.c ****   }
ARM GAS  C:\Users\aniru.000\AppData\Local\Temp\ccGZAzIF.s 			page 78


1385:Drivers/STM32G4xx_HAL_Driver/Src/stm32g4xx_hal_rcc_ex.c **** }
1386:Drivers/STM32G4xx_HAL_Driver/Src/stm32g4xx_hal_rcc_ex.c **** 
1387:Drivers/STM32G4xx_HAL_Driver/Src/stm32g4xx_hal_rcc_ex.c **** /**
1388:Drivers/STM32G4xx_HAL_Driver/Src/stm32g4xx_hal_rcc_ex.c ****   * @brief  RCCEx LSE Clock Security System interrupt callback.
1389:Drivers/STM32G4xx_HAL_Driver/Src/stm32g4xx_hal_rcc_ex.c ****   * @retval none
1390:Drivers/STM32G4xx_HAL_Driver/Src/stm32g4xx_hal_rcc_ex.c ****   */
1391:Drivers/STM32G4xx_HAL_Driver/Src/stm32g4xx_hal_rcc_ex.c **** __weak void HAL_RCCEx_LSECSS_Callback(void)
1392:Drivers/STM32G4xx_HAL_Driver/Src/stm32g4xx_hal_rcc_ex.c **** {
 2464              		.loc 1 1392 1 is_stmt 1 view -0
 2465              		.cfi_startproc
 2466              		@ args = 0, pretend = 0, frame = 0
 2467              		@ frame_needed = 0, uses_anonymous_args = 0
 2468              		@ link register save eliminated.
1393:Drivers/STM32G4xx_HAL_Driver/Src/stm32g4xx_hal_rcc_ex.c ****   /* NOTE : This function should not be modified, when the callback is needed,
1394:Drivers/STM32G4xx_HAL_Driver/Src/stm32g4xx_hal_rcc_ex.c ****             the @ref HAL_RCCEx_LSECSS_Callback should be implemented in the user file
1395:Drivers/STM32G4xx_HAL_Driver/Src/stm32g4xx_hal_rcc_ex.c ****    */
1396:Drivers/STM32G4xx_HAL_Driver/Src/stm32g4xx_hal_rcc_ex.c **** }
 2469              		.loc 1 1396 1 view .LVU845
 2470 0000 7047     		bx	lr
 2471              		.cfi_endproc
 2472              	.LFE139:
 2474              		.section	.text.HAL_RCCEx_LSECSS_IRQHandler,"ax",%progbits
 2475              		.align	1
 2476              		.global	HAL_RCCEx_LSECSS_IRQHandler
 2477              		.syntax unified
 2478              		.thumb
 2479              		.thumb_func
 2481              	HAL_RCCEx_LSECSS_IRQHandler:
 2482              	.LFB138:
1375:Drivers/STM32G4xx_HAL_Driver/Src/stm32g4xx_hal_rcc_ex.c ****   /* Check RCC LSE CSSF flag  */
 2483              		.loc 1 1375 1 view -0
 2484              		.cfi_startproc
 2485              		@ args = 0, pretend = 0, frame = 0
 2486              		@ frame_needed = 0, uses_anonymous_args = 0
 2487 0000 08B5     		push	{r3, lr}
 2488              		.cfi_def_cfa_offset 8
 2489              		.cfi_offset 3, -8
 2490              		.cfi_offset 14, -4
1377:Drivers/STM32G4xx_HAL_Driver/Src/stm32g4xx_hal_rcc_ex.c ****   {
 2491              		.loc 1 1377 3 view .LVU847
1377:Drivers/STM32G4xx_HAL_Driver/Src/stm32g4xx_hal_rcc_ex.c ****   {
 2492              		.loc 1 1377 6 is_stmt 0 view .LVU848
 2493 0002 064B     		ldr	r3, .L222
 2494 0004 DB69     		ldr	r3, [r3, #28]
1377:Drivers/STM32G4xx_HAL_Driver/Src/stm32g4xx_hal_rcc_ex.c ****   {
 2495              		.loc 1 1377 5 view .LVU849
 2496 0006 13F4007F 		tst	r3, #512
 2497 000a 00D1     		bne	.L221
 2498              	.L218:
1385:Drivers/STM32G4xx_HAL_Driver/Src/stm32g4xx_hal_rcc_ex.c **** 
 2499              		.loc 1 1385 1 view .LVU850
 2500 000c 08BD     		pop	{r3, pc}
 2501              	.L221:
1380:Drivers/STM32G4xx_HAL_Driver/Src/stm32g4xx_hal_rcc_ex.c **** 
 2502              		.loc 1 1380 5 is_stmt 1 view .LVU851
 2503 000e FFF7FEFF 		bl	HAL_RCCEx_LSECSS_Callback
 2504              	.LVL279:
ARM GAS  C:\Users\aniru.000\AppData\Local\Temp\ccGZAzIF.s 			page 79


1383:Drivers/STM32G4xx_HAL_Driver/Src/stm32g4xx_hal_rcc_ex.c ****   }
 2505              		.loc 1 1383 5 view .LVU852
 2506 0012 024B     		ldr	r3, .L222
 2507 0014 4FF40072 		mov	r2, #512
 2508 0018 1A62     		str	r2, [r3, #32]
1385:Drivers/STM32G4xx_HAL_Driver/Src/stm32g4xx_hal_rcc_ex.c **** 
 2509              		.loc 1 1385 1 is_stmt 0 view .LVU853
 2510 001a F7E7     		b	.L218
 2511              	.L223:
 2512              		.align	2
 2513              	.L222:
 2514 001c 00100240 		.word	1073876992
 2515              		.cfi_endproc
 2516              	.LFE138:
 2518              		.section	.text.HAL_RCCEx_EnableLSCO,"ax",%progbits
 2519              		.align	1
 2520              		.global	HAL_RCCEx_EnableLSCO
 2521              		.syntax unified
 2522              		.thumb
 2523              		.thumb_func
 2525              	HAL_RCCEx_EnableLSCO:
 2526              	.LVL280:
 2527              	.LFB140:
1397:Drivers/STM32G4xx_HAL_Driver/Src/stm32g4xx_hal_rcc_ex.c **** 
1398:Drivers/STM32G4xx_HAL_Driver/Src/stm32g4xx_hal_rcc_ex.c **** /**
1399:Drivers/STM32G4xx_HAL_Driver/Src/stm32g4xx_hal_rcc_ex.c ****   * @brief  Select the Low Speed clock source to output on LSCO pin (PA2).
1400:Drivers/STM32G4xx_HAL_Driver/Src/stm32g4xx_hal_rcc_ex.c ****   * @param  LSCOSource  specifies the Low Speed clock source to output.
1401:Drivers/STM32G4xx_HAL_Driver/Src/stm32g4xx_hal_rcc_ex.c ****   *          This parameter can be one of the following values:
1402:Drivers/STM32G4xx_HAL_Driver/Src/stm32g4xx_hal_rcc_ex.c ****   *            @arg @ref RCC_LSCOSOURCE_LSI  LSI clock selected as LSCO source
1403:Drivers/STM32G4xx_HAL_Driver/Src/stm32g4xx_hal_rcc_ex.c ****   *            @arg @ref RCC_LSCOSOURCE_LSE  LSE clock selected as LSCO source
1404:Drivers/STM32G4xx_HAL_Driver/Src/stm32g4xx_hal_rcc_ex.c ****   * @retval None
1405:Drivers/STM32G4xx_HAL_Driver/Src/stm32g4xx_hal_rcc_ex.c ****   */
1406:Drivers/STM32G4xx_HAL_Driver/Src/stm32g4xx_hal_rcc_ex.c **** void HAL_RCCEx_EnableLSCO(uint32_t LSCOSource)
1407:Drivers/STM32G4xx_HAL_Driver/Src/stm32g4xx_hal_rcc_ex.c **** {
 2528              		.loc 1 1407 1 is_stmt 1 view -0
 2529              		.cfi_startproc
 2530              		@ args = 0, pretend = 0, frame = 32
 2531              		@ frame_needed = 0, uses_anonymous_args = 0
 2532              		.loc 1 1407 1 is_stmt 0 view .LVU855
 2533 0000 30B5     		push	{r4, r5, lr}
 2534              		.cfi_def_cfa_offset 12
 2535              		.cfi_offset 4, -12
 2536              		.cfi_offset 5, -8
 2537              		.cfi_offset 14, -4
 2538 0002 89B0     		sub	sp, sp, #36
 2539              		.cfi_def_cfa_offset 48
 2540 0004 0546     		mov	r5, r0
1408:Drivers/STM32G4xx_HAL_Driver/Src/stm32g4xx_hal_rcc_ex.c ****   GPIO_InitTypeDef GPIO_InitStruct = {0};
 2541              		.loc 1 1408 3 is_stmt 1 view .LVU856
 2542              		.loc 1 1408 20 is_stmt 0 view .LVU857
 2543 0006 03A9     		add	r1, sp, #12
 2544 0008 0023     		movs	r3, #0
 2545 000a 0393     		str	r3, [sp, #12]
 2546 000c 4B60     		str	r3, [r1, #4]
 2547 000e 8B60     		str	r3, [r1, #8]
 2548 0010 CB60     		str	r3, [r1, #12]
 2549 0012 0B61     		str	r3, [r1, #16]
ARM GAS  C:\Users\aniru.000\AppData\Local\Temp\ccGZAzIF.s 			page 80


1409:Drivers/STM32G4xx_HAL_Driver/Src/stm32g4xx_hal_rcc_ex.c ****   FlagStatus       pwrclkchanged = RESET;
 2550              		.loc 1 1409 3 is_stmt 1 view .LVU858
 2551              	.LVL281:
1410:Drivers/STM32G4xx_HAL_Driver/Src/stm32g4xx_hal_rcc_ex.c ****   FlagStatus       backupchanged = RESET;
 2552              		.loc 1 1410 3 view .LVU859
1411:Drivers/STM32G4xx_HAL_Driver/Src/stm32g4xx_hal_rcc_ex.c **** 
1412:Drivers/STM32G4xx_HAL_Driver/Src/stm32g4xx_hal_rcc_ex.c ****   /* Check the parameters */
1413:Drivers/STM32G4xx_HAL_Driver/Src/stm32g4xx_hal_rcc_ex.c ****   assert_param(IS_RCC_LSCOSOURCE(LSCOSource));
 2553              		.loc 1 1413 3 view .LVU860
1414:Drivers/STM32G4xx_HAL_Driver/Src/stm32g4xx_hal_rcc_ex.c **** 
1415:Drivers/STM32G4xx_HAL_Driver/Src/stm32g4xx_hal_rcc_ex.c ****   /* LSCO Pin Clock Enable */
1416:Drivers/STM32G4xx_HAL_Driver/Src/stm32g4xx_hal_rcc_ex.c ****   __LSCO_CLK_ENABLE();
 2554              		.loc 1 1416 3 view .LVU861
 2555              	.LBB5:
 2556              		.loc 1 1416 3 view .LVU862
 2557              		.loc 1 1416 3 view .LVU863
 2558 0014 224C     		ldr	r4, .L235
 2559 0016 E36C     		ldr	r3, [r4, #76]
 2560 0018 43F00103 		orr	r3, r3, #1
 2561 001c E364     		str	r3, [r4, #76]
 2562              		.loc 1 1416 3 view .LVU864
 2563 001e E36C     		ldr	r3, [r4, #76]
 2564 0020 03F00103 		and	r3, r3, #1
 2565 0024 0193     		str	r3, [sp, #4]
 2566              		.loc 1 1416 3 view .LVU865
 2567 0026 019B     		ldr	r3, [sp, #4]
 2568              	.LBE5:
 2569              		.loc 1 1416 3 view .LVU866
1417:Drivers/STM32G4xx_HAL_Driver/Src/stm32g4xx_hal_rcc_ex.c **** 
1418:Drivers/STM32G4xx_HAL_Driver/Src/stm32g4xx_hal_rcc_ex.c ****   /* Configure the LSCO pin in analog mode */
1419:Drivers/STM32G4xx_HAL_Driver/Src/stm32g4xx_hal_rcc_ex.c ****   GPIO_InitStruct.Pin = LSCO_PIN;
 2570              		.loc 1 1419 3 view .LVU867
 2571              		.loc 1 1419 23 is_stmt 0 view .LVU868
 2572 0028 0423     		movs	r3, #4
 2573 002a 0393     		str	r3, [sp, #12]
1420:Drivers/STM32G4xx_HAL_Driver/Src/stm32g4xx_hal_rcc_ex.c ****   GPIO_InitStruct.Mode = GPIO_MODE_ANALOG;
 2574              		.loc 1 1420 3 is_stmt 1 view .LVU869
 2575              		.loc 1 1420 24 is_stmt 0 view .LVU870
 2576 002c 0323     		movs	r3, #3
 2577 002e 0493     		str	r3, [sp, #16]
1421:Drivers/STM32G4xx_HAL_Driver/Src/stm32g4xx_hal_rcc_ex.c ****   GPIO_InitStruct.Speed = GPIO_SPEED_FREQ_HIGH;
 2578              		.loc 1 1421 3 is_stmt 1 view .LVU871
 2579              		.loc 1 1421 25 is_stmt 0 view .LVU872
 2580 0030 0223     		movs	r3, #2
 2581 0032 0693     		str	r3, [sp, #24]
1422:Drivers/STM32G4xx_HAL_Driver/Src/stm32g4xx_hal_rcc_ex.c ****   GPIO_InitStruct.Pull = GPIO_NOPULL;
 2582              		.loc 1 1422 3 is_stmt 1 view .LVU873
1423:Drivers/STM32G4xx_HAL_Driver/Src/stm32g4xx_hal_rcc_ex.c ****   HAL_GPIO_Init(LSCO_GPIO_PORT, &GPIO_InitStruct);
 2583              		.loc 1 1423 3 view .LVU874
 2584 0034 4FF09040 		mov	r0, #1207959552
 2585              	.LVL282:
 2586              		.loc 1 1423 3 is_stmt 0 view .LVU875
 2587 0038 FFF7FEFF 		bl	HAL_GPIO_Init
 2588              	.LVL283:
1424:Drivers/STM32G4xx_HAL_Driver/Src/stm32g4xx_hal_rcc_ex.c **** 
1425:Drivers/STM32G4xx_HAL_Driver/Src/stm32g4xx_hal_rcc_ex.c ****   /* Update LSCOSEL clock source in Backup Domain control register */
1426:Drivers/STM32G4xx_HAL_Driver/Src/stm32g4xx_hal_rcc_ex.c ****   if(__HAL_RCC_PWR_IS_CLK_DISABLED())
ARM GAS  C:\Users\aniru.000\AppData\Local\Temp\ccGZAzIF.s 			page 81


 2589              		.loc 1 1426 3 is_stmt 1 view .LVU876
 2590              		.loc 1 1426 6 is_stmt 0 view .LVU877
 2591 003c A36D     		ldr	r3, [r4, #88]
 2592              		.loc 1 1426 5 view .LVU878
 2593 003e 13F0805F 		tst	r3, #268435456
 2594 0042 1DD1     		bne	.L229
1427:Drivers/STM32G4xx_HAL_Driver/Src/stm32g4xx_hal_rcc_ex.c ****   {
1428:Drivers/STM32G4xx_HAL_Driver/Src/stm32g4xx_hal_rcc_ex.c ****     __HAL_RCC_PWR_CLK_ENABLE();
 2595              		.loc 1 1428 5 is_stmt 1 view .LVU879
 2596              	.LBB6:
 2597              		.loc 1 1428 5 view .LVU880
 2598              		.loc 1 1428 5 view .LVU881
 2599 0044 A26D     		ldr	r2, [r4, #88]
 2600 0046 42F08052 		orr	r2, r2, #268435456
 2601 004a A265     		str	r2, [r4, #88]
 2602              		.loc 1 1428 5 view .LVU882
 2603 004c A36D     		ldr	r3, [r4, #88]
 2604 004e 03F08053 		and	r3, r3, #268435456
 2605 0052 0293     		str	r3, [sp, #8]
 2606              		.loc 1 1428 5 view .LVU883
 2607 0054 029B     		ldr	r3, [sp, #8]
 2608              	.LBE6:
 2609              		.loc 1 1428 5 view .LVU884
1429:Drivers/STM32G4xx_HAL_Driver/Src/stm32g4xx_hal_rcc_ex.c ****     pwrclkchanged = SET;
 2610              		.loc 1 1429 5 view .LVU885
 2611              	.LVL284:
 2612              		.loc 1 1429 19 is_stmt 0 view .LVU886
 2613 0056 0124     		movs	r4, #1
 2614              	.LVL285:
 2615              	.L225:
1430:Drivers/STM32G4xx_HAL_Driver/Src/stm32g4xx_hal_rcc_ex.c ****   }
1431:Drivers/STM32G4xx_HAL_Driver/Src/stm32g4xx_hal_rcc_ex.c ****   if(HAL_IS_BIT_CLR(PWR->CR1, PWR_CR1_DBP))
 2616              		.loc 1 1431 3 is_stmt 1 view .LVU887
 2617              		.loc 1 1431 6 is_stmt 0 view .LVU888
 2618 0058 124B     		ldr	r3, .L235+4
 2619 005a 1B68     		ldr	r3, [r3]
 2620              		.loc 1 1431 5 view .LVU889
 2621 005c 13F4807F 		tst	r3, #256
 2622 0060 10D0     		beq	.L232
1410:Drivers/STM32G4xx_HAL_Driver/Src/stm32g4xx_hal_rcc_ex.c **** 
 2623              		.loc 1 1410 20 view .LVU890
 2624 0062 0022     		movs	r2, #0
 2625              	.LVL286:
 2626              	.L226:
1432:Drivers/STM32G4xx_HAL_Driver/Src/stm32g4xx_hal_rcc_ex.c ****   {
1433:Drivers/STM32G4xx_HAL_Driver/Src/stm32g4xx_hal_rcc_ex.c ****     HAL_PWR_EnableBkUpAccess();
1434:Drivers/STM32G4xx_HAL_Driver/Src/stm32g4xx_hal_rcc_ex.c ****     backupchanged = SET;
1435:Drivers/STM32G4xx_HAL_Driver/Src/stm32g4xx_hal_rcc_ex.c ****   }
1436:Drivers/STM32G4xx_HAL_Driver/Src/stm32g4xx_hal_rcc_ex.c **** 
1437:Drivers/STM32G4xx_HAL_Driver/Src/stm32g4xx_hal_rcc_ex.c ****   MODIFY_REG(RCC->BDCR, RCC_BDCR_LSCOSEL | RCC_BDCR_LSCOEN, LSCOSource | RCC_BDCR_LSCOEN);
 2627              		.loc 1 1437 3 is_stmt 1 view .LVU891
 2628 0064 0E4B     		ldr	r3, .L235
 2629 0066 D3F89000 		ldr	r0, [r3, #144]
 2630 006a 20F04070 		bic	r0, r0, #50331648
 2631 006e 2843     		orrs	r0, r0, r5
 2632 0070 40F08070 		orr	r0, r0, #16777216
 2633 0074 C3F89000 		str	r0, [r3, #144]
ARM GAS  C:\Users\aniru.000\AppData\Local\Temp\ccGZAzIF.s 			page 82


1438:Drivers/STM32G4xx_HAL_Driver/Src/stm32g4xx_hal_rcc_ex.c **** 
1439:Drivers/STM32G4xx_HAL_Driver/Src/stm32g4xx_hal_rcc_ex.c ****   if(backupchanged == SET)
 2634              		.loc 1 1439 3 view .LVU892
 2635              		.loc 1 1439 5 is_stmt 0 view .LVU893
 2636 0078 42B9     		cbnz	r2, .L233
 2637              	.LVL287:
 2638              	.L227:
1440:Drivers/STM32G4xx_HAL_Driver/Src/stm32g4xx_hal_rcc_ex.c ****   {
1441:Drivers/STM32G4xx_HAL_Driver/Src/stm32g4xx_hal_rcc_ex.c ****     HAL_PWR_DisableBkUpAccess();
1442:Drivers/STM32G4xx_HAL_Driver/Src/stm32g4xx_hal_rcc_ex.c ****   }
1443:Drivers/STM32G4xx_HAL_Driver/Src/stm32g4xx_hal_rcc_ex.c ****   if(pwrclkchanged == SET)
 2639              		.loc 1 1443 3 is_stmt 1 view .LVU894
 2640              		.loc 1 1443 5 is_stmt 0 view .LVU895
 2641 007a 54B9     		cbnz	r4, .L234
 2642              	.L224:
1444:Drivers/STM32G4xx_HAL_Driver/Src/stm32g4xx_hal_rcc_ex.c ****   {
1445:Drivers/STM32G4xx_HAL_Driver/Src/stm32g4xx_hal_rcc_ex.c ****     __HAL_RCC_PWR_CLK_DISABLE();
1446:Drivers/STM32G4xx_HAL_Driver/Src/stm32g4xx_hal_rcc_ex.c ****   }
1447:Drivers/STM32G4xx_HAL_Driver/Src/stm32g4xx_hal_rcc_ex.c **** }
 2643              		.loc 1 1447 1 view .LVU896
 2644 007c 09B0     		add	sp, sp, #36
 2645              		.cfi_remember_state
 2646              		.cfi_def_cfa_offset 12
 2647              		@ sp needed
 2648 007e 30BD     		pop	{r4, r5, pc}
 2649              	.LVL288:
 2650              	.L229:
 2651              		.cfi_restore_state
1409:Drivers/STM32G4xx_HAL_Driver/Src/stm32g4xx_hal_rcc_ex.c ****   FlagStatus       backupchanged = RESET;
 2652              		.loc 1 1409 20 view .LVU897
 2653 0080 0024     		movs	r4, #0
 2654 0082 E9E7     		b	.L225
 2655              	.LVL289:
 2656              	.L232:
1433:Drivers/STM32G4xx_HAL_Driver/Src/stm32g4xx_hal_rcc_ex.c ****     backupchanged = SET;
 2657              		.loc 1 1433 5 is_stmt 1 view .LVU898
 2658 0084 FFF7FEFF 		bl	HAL_PWR_EnableBkUpAccess
 2659              	.LVL290:
1434:Drivers/STM32G4xx_HAL_Driver/Src/stm32g4xx_hal_rcc_ex.c ****   }
 2660              		.loc 1 1434 5 view .LVU899
1434:Drivers/STM32G4xx_HAL_Driver/Src/stm32g4xx_hal_rcc_ex.c ****   }
 2661              		.loc 1 1434 19 is_stmt 0 view .LVU900
 2662 0088 0122     		movs	r2, #1
 2663 008a EBE7     		b	.L226
 2664              	.LVL291:
 2665              	.L233:
1441:Drivers/STM32G4xx_HAL_Driver/Src/stm32g4xx_hal_rcc_ex.c ****   }
 2666              		.loc 1 1441 5 is_stmt 1 view .LVU901
 2667 008c FFF7FEFF 		bl	HAL_PWR_DisableBkUpAccess
 2668              	.LVL292:
1441:Drivers/STM32G4xx_HAL_Driver/Src/stm32g4xx_hal_rcc_ex.c ****   }
 2669              		.loc 1 1441 5 is_stmt 0 view .LVU902
 2670 0090 F3E7     		b	.L227
 2671              	.L234:
1445:Drivers/STM32G4xx_HAL_Driver/Src/stm32g4xx_hal_rcc_ex.c ****   }
 2672              		.loc 1 1445 5 is_stmt 1 view .LVU903
 2673 0092 034A     		ldr	r2, .L235
ARM GAS  C:\Users\aniru.000\AppData\Local\Temp\ccGZAzIF.s 			page 83


 2674 0094 936D     		ldr	r3, [r2, #88]
 2675 0096 23F08053 		bic	r3, r3, #268435456
 2676 009a 9365     		str	r3, [r2, #88]
 2677              		.loc 1 1447 1 is_stmt 0 view .LVU904
 2678 009c EEE7     		b	.L224
 2679              	.L236:
 2680 009e 00BF     		.align	2
 2681              	.L235:
 2682 00a0 00100240 		.word	1073876992
 2683 00a4 00700040 		.word	1073770496
 2684              		.cfi_endproc
 2685              	.LFE140:
 2687              		.section	.text.HAL_RCCEx_DisableLSCO,"ax",%progbits
 2688              		.align	1
 2689              		.global	HAL_RCCEx_DisableLSCO
 2690              		.syntax unified
 2691              		.thumb
 2692              		.thumb_func
 2694              	HAL_RCCEx_DisableLSCO:
 2695              	.LFB141:
1448:Drivers/STM32G4xx_HAL_Driver/Src/stm32g4xx_hal_rcc_ex.c **** 
1449:Drivers/STM32G4xx_HAL_Driver/Src/stm32g4xx_hal_rcc_ex.c **** /**
1450:Drivers/STM32G4xx_HAL_Driver/Src/stm32g4xx_hal_rcc_ex.c ****   * @brief  Disable the Low Speed clock output.
1451:Drivers/STM32G4xx_HAL_Driver/Src/stm32g4xx_hal_rcc_ex.c ****   * @retval None
1452:Drivers/STM32G4xx_HAL_Driver/Src/stm32g4xx_hal_rcc_ex.c ****   */
1453:Drivers/STM32G4xx_HAL_Driver/Src/stm32g4xx_hal_rcc_ex.c **** void HAL_RCCEx_DisableLSCO(void)
1454:Drivers/STM32G4xx_HAL_Driver/Src/stm32g4xx_hal_rcc_ex.c **** {
 2696              		.loc 1 1454 1 is_stmt 1 view -0
 2697              		.cfi_startproc
 2698              		@ args = 0, pretend = 0, frame = 8
 2699              		@ frame_needed = 0, uses_anonymous_args = 0
 2700 0000 10B5     		push	{r4, lr}
 2701              		.cfi_def_cfa_offset 8
 2702              		.cfi_offset 4, -8
 2703              		.cfi_offset 14, -4
 2704 0002 82B0     		sub	sp, sp, #8
 2705              		.cfi_def_cfa_offset 16
1455:Drivers/STM32G4xx_HAL_Driver/Src/stm32g4xx_hal_rcc_ex.c ****   FlagStatus       pwrclkchanged = RESET;
 2706              		.loc 1 1455 3 view .LVU906
 2707              	.LVL293:
1456:Drivers/STM32G4xx_HAL_Driver/Src/stm32g4xx_hal_rcc_ex.c ****   FlagStatus       backupchanged = RESET;
 2708              		.loc 1 1456 3 view .LVU907
1457:Drivers/STM32G4xx_HAL_Driver/Src/stm32g4xx_hal_rcc_ex.c **** 
1458:Drivers/STM32G4xx_HAL_Driver/Src/stm32g4xx_hal_rcc_ex.c ****   /* Update LSCOEN bit in Backup Domain control register */
1459:Drivers/STM32G4xx_HAL_Driver/Src/stm32g4xx_hal_rcc_ex.c ****   if(__HAL_RCC_PWR_IS_CLK_DISABLED())
 2709              		.loc 1 1459 3 view .LVU908
 2710              		.loc 1 1459 6 is_stmt 0 view .LVU909
 2711 0004 184B     		ldr	r3, .L248
 2712 0006 9B6D     		ldr	r3, [r3, #88]
 2713              		.loc 1 1459 5 view .LVU910
 2714 0008 13F0805F 		tst	r3, #268435456
 2715 000c 1CD1     		bne	.L242
1460:Drivers/STM32G4xx_HAL_Driver/Src/stm32g4xx_hal_rcc_ex.c ****   {
1461:Drivers/STM32G4xx_HAL_Driver/Src/stm32g4xx_hal_rcc_ex.c ****     __HAL_RCC_PWR_CLK_ENABLE();
 2716              		.loc 1 1461 5 is_stmt 1 view .LVU911
 2717              	.LBB7:
 2718              		.loc 1 1461 5 view .LVU912
ARM GAS  C:\Users\aniru.000\AppData\Local\Temp\ccGZAzIF.s 			page 84


 2719              		.loc 1 1461 5 view .LVU913
 2720 000e 164B     		ldr	r3, .L248
 2721 0010 9A6D     		ldr	r2, [r3, #88]
 2722 0012 42F08052 		orr	r2, r2, #268435456
 2723 0016 9A65     		str	r2, [r3, #88]
 2724              		.loc 1 1461 5 view .LVU914
 2725 0018 9B6D     		ldr	r3, [r3, #88]
 2726 001a 03F08053 		and	r3, r3, #268435456
 2727 001e 0193     		str	r3, [sp, #4]
 2728              		.loc 1 1461 5 view .LVU915
 2729 0020 019B     		ldr	r3, [sp, #4]
 2730              	.LBE7:
 2731              		.loc 1 1461 5 view .LVU916
1462:Drivers/STM32G4xx_HAL_Driver/Src/stm32g4xx_hal_rcc_ex.c ****     pwrclkchanged = SET;
 2732              		.loc 1 1462 5 view .LVU917
 2733              	.LVL294:
 2734              		.loc 1 1462 19 is_stmt 0 view .LVU918
 2735 0022 0123     		movs	r3, #1
 2736 0024 1C46     		mov	r4, r3
 2737              	.LVL295:
 2738              	.L238:
1463:Drivers/STM32G4xx_HAL_Driver/Src/stm32g4xx_hal_rcc_ex.c ****   }
1464:Drivers/STM32G4xx_HAL_Driver/Src/stm32g4xx_hal_rcc_ex.c ****   if(HAL_IS_BIT_CLR(PWR->CR1, PWR_CR1_DBP))
 2739              		.loc 1 1464 3 is_stmt 1 view .LVU919
 2740              		.loc 1 1464 6 is_stmt 0 view .LVU920
 2741 0026 114B     		ldr	r3, .L248+4
 2742 0028 1B68     		ldr	r3, [r3]
 2743              		.loc 1 1464 5 view .LVU921
 2744 002a 13F4807F 		tst	r3, #256
 2745 002e 0ED0     		beq	.L245
1456:Drivers/STM32G4xx_HAL_Driver/Src/stm32g4xx_hal_rcc_ex.c **** 
 2746              		.loc 1 1456 20 view .LVU922
 2747 0030 0021     		movs	r1, #0
 2748              	.LVL296:
 2749              	.L239:
1465:Drivers/STM32G4xx_HAL_Driver/Src/stm32g4xx_hal_rcc_ex.c ****   {
1466:Drivers/STM32G4xx_HAL_Driver/Src/stm32g4xx_hal_rcc_ex.c ****     /* Enable access to the backup domain */
1467:Drivers/STM32G4xx_HAL_Driver/Src/stm32g4xx_hal_rcc_ex.c ****     HAL_PWR_EnableBkUpAccess();
1468:Drivers/STM32G4xx_HAL_Driver/Src/stm32g4xx_hal_rcc_ex.c ****     backupchanged = SET;
1469:Drivers/STM32G4xx_HAL_Driver/Src/stm32g4xx_hal_rcc_ex.c ****   }
1470:Drivers/STM32G4xx_HAL_Driver/Src/stm32g4xx_hal_rcc_ex.c **** 
1471:Drivers/STM32G4xx_HAL_Driver/Src/stm32g4xx_hal_rcc_ex.c ****   CLEAR_BIT(RCC->BDCR, RCC_BDCR_LSCOEN);
 2750              		.loc 1 1471 3 is_stmt 1 view .LVU923
 2751 0032 0D4A     		ldr	r2, .L248
 2752 0034 D2F89030 		ldr	r3, [r2, #144]
 2753 0038 23F08073 		bic	r3, r3, #16777216
 2754 003c C2F89030 		str	r3, [r2, #144]
1472:Drivers/STM32G4xx_HAL_Driver/Src/stm32g4xx_hal_rcc_ex.c **** 
1473:Drivers/STM32G4xx_HAL_Driver/Src/stm32g4xx_hal_rcc_ex.c ****   /* Restore previous configuration */
1474:Drivers/STM32G4xx_HAL_Driver/Src/stm32g4xx_hal_rcc_ex.c ****   if(backupchanged == SET)
 2755              		.loc 1 1474 3 view .LVU924
 2756              		.loc 1 1474 5 is_stmt 0 view .LVU925
 2757 0040 49B9     		cbnz	r1, .L246
 2758              	.LVL297:
 2759              	.L240:
1475:Drivers/STM32G4xx_HAL_Driver/Src/stm32g4xx_hal_rcc_ex.c ****   {
1476:Drivers/STM32G4xx_HAL_Driver/Src/stm32g4xx_hal_rcc_ex.c ****     /* Disable access to the backup domain */
ARM GAS  C:\Users\aniru.000\AppData\Local\Temp\ccGZAzIF.s 			page 85


1477:Drivers/STM32G4xx_HAL_Driver/Src/stm32g4xx_hal_rcc_ex.c ****     HAL_PWR_DisableBkUpAccess();
1478:Drivers/STM32G4xx_HAL_Driver/Src/stm32g4xx_hal_rcc_ex.c ****   }
1479:Drivers/STM32G4xx_HAL_Driver/Src/stm32g4xx_hal_rcc_ex.c ****   if(pwrclkchanged == SET)
 2760              		.loc 1 1479 3 is_stmt 1 view .LVU926
 2761              		.loc 1 1479 5 is_stmt 0 view .LVU927
 2762 0042 5CB9     		cbnz	r4, .L247
 2763              	.L237:
1480:Drivers/STM32G4xx_HAL_Driver/Src/stm32g4xx_hal_rcc_ex.c ****   {
1481:Drivers/STM32G4xx_HAL_Driver/Src/stm32g4xx_hal_rcc_ex.c ****     __HAL_RCC_PWR_CLK_DISABLE();
1482:Drivers/STM32G4xx_HAL_Driver/Src/stm32g4xx_hal_rcc_ex.c ****   }
1483:Drivers/STM32G4xx_HAL_Driver/Src/stm32g4xx_hal_rcc_ex.c **** }
 2764              		.loc 1 1483 1 view .LVU928
 2765 0044 02B0     		add	sp, sp, #8
 2766              		.cfi_remember_state
 2767              		.cfi_def_cfa_offset 8
 2768              		@ sp needed
 2769 0046 10BD     		pop	{r4, pc}
 2770              	.LVL298:
 2771              	.L242:
 2772              		.cfi_restore_state
1455:Drivers/STM32G4xx_HAL_Driver/Src/stm32g4xx_hal_rcc_ex.c ****   FlagStatus       backupchanged = RESET;
 2773              		.loc 1 1455 20 view .LVU929
 2774 0048 0023     		movs	r3, #0
 2775 004a 1C46     		mov	r4, r3
 2776 004c EBE7     		b	.L238
 2777              	.LVL299:
 2778              	.L245:
1467:Drivers/STM32G4xx_HAL_Driver/Src/stm32g4xx_hal_rcc_ex.c ****     backupchanged = SET;
 2779              		.loc 1 1467 5 is_stmt 1 view .LVU930
 2780 004e FFF7FEFF 		bl	HAL_PWR_EnableBkUpAccess
 2781              	.LVL300:
1468:Drivers/STM32G4xx_HAL_Driver/Src/stm32g4xx_hal_rcc_ex.c ****   }
 2782              		.loc 1 1468 5 view .LVU931
1468:Drivers/STM32G4xx_HAL_Driver/Src/stm32g4xx_hal_rcc_ex.c ****   }
 2783              		.loc 1 1468 19 is_stmt 0 view .LVU932
 2784 0052 0121     		movs	r1, #1
 2785 0054 EDE7     		b	.L239
 2786              	.LVL301:
 2787              	.L246:
1477:Drivers/STM32G4xx_HAL_Driver/Src/stm32g4xx_hal_rcc_ex.c ****   }
 2788              		.loc 1 1477 5 is_stmt 1 view .LVU933
 2789 0056 FFF7FEFF 		bl	HAL_PWR_DisableBkUpAccess
 2790              	.LVL302:
1477:Drivers/STM32G4xx_HAL_Driver/Src/stm32g4xx_hal_rcc_ex.c ****   }
 2791              		.loc 1 1477 5 is_stmt 0 view .LVU934
 2792 005a F2E7     		b	.L240
 2793              	.L247:
1481:Drivers/STM32G4xx_HAL_Driver/Src/stm32g4xx_hal_rcc_ex.c ****   }
 2794              		.loc 1 1481 5 is_stmt 1 view .LVU935
 2795 005c 024A     		ldr	r2, .L248
 2796 005e 936D     		ldr	r3, [r2, #88]
 2797 0060 23F08053 		bic	r3, r3, #268435456
 2798 0064 9365     		str	r3, [r2, #88]
 2799              		.loc 1 1483 1 is_stmt 0 view .LVU936
 2800 0066 EDE7     		b	.L237
 2801              	.L249:
 2802              		.align	2
ARM GAS  C:\Users\aniru.000\AppData\Local\Temp\ccGZAzIF.s 			page 86


 2803              	.L248:
 2804 0068 00100240 		.word	1073876992
 2805 006c 00700040 		.word	1073770496
 2806              		.cfi_endproc
 2807              	.LFE141:
 2809              		.section	.text.HAL_RCCEx_CRSConfig,"ax",%progbits
 2810              		.align	1
 2811              		.global	HAL_RCCEx_CRSConfig
 2812              		.syntax unified
 2813              		.thumb
 2814              		.thumb_func
 2816              	HAL_RCCEx_CRSConfig:
 2817              	.LVL303:
 2818              	.LFB142:
1484:Drivers/STM32G4xx_HAL_Driver/Src/stm32g4xx_hal_rcc_ex.c **** 
1485:Drivers/STM32G4xx_HAL_Driver/Src/stm32g4xx_hal_rcc_ex.c **** 
1486:Drivers/STM32G4xx_HAL_Driver/Src/stm32g4xx_hal_rcc_ex.c **** /**
1487:Drivers/STM32G4xx_HAL_Driver/Src/stm32g4xx_hal_rcc_ex.c ****   * @}
1488:Drivers/STM32G4xx_HAL_Driver/Src/stm32g4xx_hal_rcc_ex.c ****   */
1489:Drivers/STM32G4xx_HAL_Driver/Src/stm32g4xx_hal_rcc_ex.c **** 
1490:Drivers/STM32G4xx_HAL_Driver/Src/stm32g4xx_hal_rcc_ex.c **** #if defined(CRS)
1491:Drivers/STM32G4xx_HAL_Driver/Src/stm32g4xx_hal_rcc_ex.c **** 
1492:Drivers/STM32G4xx_HAL_Driver/Src/stm32g4xx_hal_rcc_ex.c **** /** @defgroup RCCEx_Exported_Functions_Group3 Extended Clock Recovery System Control functions
1493:Drivers/STM32G4xx_HAL_Driver/Src/stm32g4xx_hal_rcc_ex.c ****  *  @brief  Extended Clock Recovery System Control functions
1494:Drivers/STM32G4xx_HAL_Driver/Src/stm32g4xx_hal_rcc_ex.c ****  *
1495:Drivers/STM32G4xx_HAL_Driver/Src/stm32g4xx_hal_rcc_ex.c **** @verbatim
1496:Drivers/STM32G4xx_HAL_Driver/Src/stm32g4xx_hal_rcc_ex.c ****  ===============================================================================
1497:Drivers/STM32G4xx_HAL_Driver/Src/stm32g4xx_hal_rcc_ex.c ****                 ##### Extended Clock Recovery System Control functions  #####
1498:Drivers/STM32G4xx_HAL_Driver/Src/stm32g4xx_hal_rcc_ex.c ****  ===============================================================================
1499:Drivers/STM32G4xx_HAL_Driver/Src/stm32g4xx_hal_rcc_ex.c ****     [..]
1500:Drivers/STM32G4xx_HAL_Driver/Src/stm32g4xx_hal_rcc_ex.c ****       For devices with Clock Recovery System feature (CRS), RCC Extension HAL driver can be used as
1501:Drivers/STM32G4xx_HAL_Driver/Src/stm32g4xx_hal_rcc_ex.c **** 
1502:Drivers/STM32G4xx_HAL_Driver/Src/stm32g4xx_hal_rcc_ex.c ****       (#) In System clock config, HSI48 needs to be enabled
1503:Drivers/STM32G4xx_HAL_Driver/Src/stm32g4xx_hal_rcc_ex.c **** 
1504:Drivers/STM32G4xx_HAL_Driver/Src/stm32g4xx_hal_rcc_ex.c ****       (#) Enable CRS clock in IP MSP init which will use CRS functions
1505:Drivers/STM32G4xx_HAL_Driver/Src/stm32g4xx_hal_rcc_ex.c **** 
1506:Drivers/STM32G4xx_HAL_Driver/Src/stm32g4xx_hal_rcc_ex.c ****       (#) Call CRS functions as follows:
1507:Drivers/STM32G4xx_HAL_Driver/Src/stm32g4xx_hal_rcc_ex.c ****           (##) Prepare synchronization configuration necessary for HSI48 calibration
1508:Drivers/STM32G4xx_HAL_Driver/Src/stm32g4xx_hal_rcc_ex.c ****               (+++) Default values can be set for frequency Error Measurement (reload and error lim
1509:Drivers/STM32G4xx_HAL_Driver/Src/stm32g4xx_hal_rcc_ex.c ****                         and also HSI48 oscillator smooth trimming.
1510:Drivers/STM32G4xx_HAL_Driver/Src/stm32g4xx_hal_rcc_ex.c ****               (+++) Macro __HAL_RCC_CRS_RELOADVALUE_CALCULATE can be also used to calculate
1511:Drivers/STM32G4xx_HAL_Driver/Src/stm32g4xx_hal_rcc_ex.c ****                         directly reload value with target and sychronization frequencies values
1512:Drivers/STM32G4xx_HAL_Driver/Src/stm32g4xx_hal_rcc_ex.c ****           (##) Call function HAL_RCCEx_CRSConfig which
1513:Drivers/STM32G4xx_HAL_Driver/Src/stm32g4xx_hal_rcc_ex.c ****               (+++) Resets CRS registers to their default values.
1514:Drivers/STM32G4xx_HAL_Driver/Src/stm32g4xx_hal_rcc_ex.c ****               (+++) Configures CRS registers with synchronization configuration
1515:Drivers/STM32G4xx_HAL_Driver/Src/stm32g4xx_hal_rcc_ex.c ****               (+++) Enables automatic calibration and frequency error counter feature
1516:Drivers/STM32G4xx_HAL_Driver/Src/stm32g4xx_hal_rcc_ex.c ****            Note: When using USB LPM (Link Power Management) and the device is in Sleep mode, the
1517:Drivers/STM32G4xx_HAL_Driver/Src/stm32g4xx_hal_rcc_ex.c ****            periodic USB SOF will not be generated by the host. No SYNC signal will therefore be
1518:Drivers/STM32G4xx_HAL_Driver/Src/stm32g4xx_hal_rcc_ex.c ****            provided to the CRS to calibrate the HSI48 on the run. To guarantee the required clock
1519:Drivers/STM32G4xx_HAL_Driver/Src/stm32g4xx_hal_rcc_ex.c ****            precision after waking up from Sleep mode, the LSE or reference clock on the GPIOs
1520:Drivers/STM32G4xx_HAL_Driver/Src/stm32g4xx_hal_rcc_ex.c ****            should be used as SYNC signal.
1521:Drivers/STM32G4xx_HAL_Driver/Src/stm32g4xx_hal_rcc_ex.c **** 
1522:Drivers/STM32G4xx_HAL_Driver/Src/stm32g4xx_hal_rcc_ex.c ****           (##) A polling function is provided to wait for complete synchronization
1523:Drivers/STM32G4xx_HAL_Driver/Src/stm32g4xx_hal_rcc_ex.c ****               (+++) Call function HAL_RCCEx_CRSWaitSynchronization()
1524:Drivers/STM32G4xx_HAL_Driver/Src/stm32g4xx_hal_rcc_ex.c ****               (+++) According to CRS status, user can decide to adjust again the calibration or con
1525:Drivers/STM32G4xx_HAL_Driver/Src/stm32g4xx_hal_rcc_ex.c ****                         application if synchronization is OK
1526:Drivers/STM32G4xx_HAL_Driver/Src/stm32g4xx_hal_rcc_ex.c **** 
ARM GAS  C:\Users\aniru.000\AppData\Local\Temp\ccGZAzIF.s 			page 87


1527:Drivers/STM32G4xx_HAL_Driver/Src/stm32g4xx_hal_rcc_ex.c ****       (#) User can retrieve information related to synchronization in calling function
1528:Drivers/STM32G4xx_HAL_Driver/Src/stm32g4xx_hal_rcc_ex.c ****             HAL_RCCEx_CRSGetSynchronizationInfo()
1529:Drivers/STM32G4xx_HAL_Driver/Src/stm32g4xx_hal_rcc_ex.c **** 
1530:Drivers/STM32G4xx_HAL_Driver/Src/stm32g4xx_hal_rcc_ex.c ****       (#) Regarding synchronization status and synchronization information, user can try a new cali
1531:Drivers/STM32G4xx_HAL_Driver/Src/stm32g4xx_hal_rcc_ex.c ****            in changing synchronization configuration and call again HAL_RCCEx_CRSConfig.
1532:Drivers/STM32G4xx_HAL_Driver/Src/stm32g4xx_hal_rcc_ex.c ****            Note: When the SYNC event is detected during the downcounting phase (before reaching the
1533:Drivers/STM32G4xx_HAL_Driver/Src/stm32g4xx_hal_rcc_ex.c ****            it means that the actual frequency is lower than the target (and so, that the TRIM value
1534:Drivers/STM32G4xx_HAL_Driver/Src/stm32g4xx_hal_rcc_ex.c ****            incremented), while when it is detected during the upcounting phase it means that the ac
1535:Drivers/STM32G4xx_HAL_Driver/Src/stm32g4xx_hal_rcc_ex.c ****            is higher (and that the TRIM value should be decremented).
1536:Drivers/STM32G4xx_HAL_Driver/Src/stm32g4xx_hal_rcc_ex.c **** 
1537:Drivers/STM32G4xx_HAL_Driver/Src/stm32g4xx_hal_rcc_ex.c ****       (#) In interrupt mode, user can resort to the available macros (__HAL_RCC_CRS_XXX_IT). Interr
1538:Drivers/STM32G4xx_HAL_Driver/Src/stm32g4xx_hal_rcc_ex.c ****           through CRS Handler (CRS_IRQn/CRS_IRQHandler)
1539:Drivers/STM32G4xx_HAL_Driver/Src/stm32g4xx_hal_rcc_ex.c ****               (++) Call function HAL_RCCEx_CRSConfig()
1540:Drivers/STM32G4xx_HAL_Driver/Src/stm32g4xx_hal_rcc_ex.c ****               (++) Enable CRS_IRQn (thanks to NVIC functions)
1541:Drivers/STM32G4xx_HAL_Driver/Src/stm32g4xx_hal_rcc_ex.c ****               (++) Enable CRS interrupt (__HAL_RCC_CRS_ENABLE_IT)
1542:Drivers/STM32G4xx_HAL_Driver/Src/stm32g4xx_hal_rcc_ex.c ****               (++) Implement CRS status management in the following user callbacks called from
1543:Drivers/STM32G4xx_HAL_Driver/Src/stm32g4xx_hal_rcc_ex.c ****                    HAL_RCCEx_CRS_IRQHandler():
1544:Drivers/STM32G4xx_HAL_Driver/Src/stm32g4xx_hal_rcc_ex.c ****                    (+++) HAL_RCCEx_CRS_SyncOkCallback()
1545:Drivers/STM32G4xx_HAL_Driver/Src/stm32g4xx_hal_rcc_ex.c ****                    (+++) HAL_RCCEx_CRS_SyncWarnCallback()
1546:Drivers/STM32G4xx_HAL_Driver/Src/stm32g4xx_hal_rcc_ex.c ****                    (+++) HAL_RCCEx_CRS_ExpectedSyncCallback()
1547:Drivers/STM32G4xx_HAL_Driver/Src/stm32g4xx_hal_rcc_ex.c ****                    (+++) HAL_RCCEx_CRS_ErrorCallback()
1548:Drivers/STM32G4xx_HAL_Driver/Src/stm32g4xx_hal_rcc_ex.c **** 
1549:Drivers/STM32G4xx_HAL_Driver/Src/stm32g4xx_hal_rcc_ex.c ****       (#) To force a SYNC EVENT, user can use the function HAL_RCCEx_CRSSoftwareSynchronizationGene
1550:Drivers/STM32G4xx_HAL_Driver/Src/stm32g4xx_hal_rcc_ex.c ****           This function can be called before calling HAL_RCCEx_CRSConfig (for instance in Systick h
1551:Drivers/STM32G4xx_HAL_Driver/Src/stm32g4xx_hal_rcc_ex.c **** 
1552:Drivers/STM32G4xx_HAL_Driver/Src/stm32g4xx_hal_rcc_ex.c **** @endverbatim
1553:Drivers/STM32G4xx_HAL_Driver/Src/stm32g4xx_hal_rcc_ex.c ****  * @{
1554:Drivers/STM32G4xx_HAL_Driver/Src/stm32g4xx_hal_rcc_ex.c ****  */
1555:Drivers/STM32G4xx_HAL_Driver/Src/stm32g4xx_hal_rcc_ex.c **** 
1556:Drivers/STM32G4xx_HAL_Driver/Src/stm32g4xx_hal_rcc_ex.c **** /**
1557:Drivers/STM32G4xx_HAL_Driver/Src/stm32g4xx_hal_rcc_ex.c ****   * @brief  Start automatic synchronization for polling mode
1558:Drivers/STM32G4xx_HAL_Driver/Src/stm32g4xx_hal_rcc_ex.c ****   * @param  pInit Pointer on RCC_CRSInitTypeDef structure
1559:Drivers/STM32G4xx_HAL_Driver/Src/stm32g4xx_hal_rcc_ex.c ****   * @retval None
1560:Drivers/STM32G4xx_HAL_Driver/Src/stm32g4xx_hal_rcc_ex.c ****   */
1561:Drivers/STM32G4xx_HAL_Driver/Src/stm32g4xx_hal_rcc_ex.c **** void HAL_RCCEx_CRSConfig(RCC_CRSInitTypeDef const *pInit)
1562:Drivers/STM32G4xx_HAL_Driver/Src/stm32g4xx_hal_rcc_ex.c **** {
 2819              		.loc 1 1562 1 is_stmt 1 view -0
 2820              		.cfi_startproc
 2821              		@ args = 0, pretend = 0, frame = 0
 2822              		@ frame_needed = 0, uses_anonymous_args = 0
 2823              		@ link register save eliminated.
1563:Drivers/STM32G4xx_HAL_Driver/Src/stm32g4xx_hal_rcc_ex.c ****   uint32_t value;
 2824              		.loc 1 1563 3 view .LVU938
1564:Drivers/STM32G4xx_HAL_Driver/Src/stm32g4xx_hal_rcc_ex.c **** 
1565:Drivers/STM32G4xx_HAL_Driver/Src/stm32g4xx_hal_rcc_ex.c ****   /* Check the parameters */
1566:Drivers/STM32G4xx_HAL_Driver/Src/stm32g4xx_hal_rcc_ex.c ****   assert_param(IS_RCC_CRS_SYNC_DIV(pInit->Prescaler));
 2825              		.loc 1 1566 3 view .LVU939
1567:Drivers/STM32G4xx_HAL_Driver/Src/stm32g4xx_hal_rcc_ex.c ****   assert_param(IS_RCC_CRS_SYNC_SOURCE(pInit->Source));
 2826              		.loc 1 1567 3 view .LVU940
1568:Drivers/STM32G4xx_HAL_Driver/Src/stm32g4xx_hal_rcc_ex.c ****   assert_param(IS_RCC_CRS_SYNC_POLARITY(pInit->Polarity));
 2827              		.loc 1 1568 3 view .LVU941
1569:Drivers/STM32G4xx_HAL_Driver/Src/stm32g4xx_hal_rcc_ex.c ****   assert_param(IS_RCC_CRS_RELOADVALUE(pInit->ReloadValue));
 2828              		.loc 1 1569 3 view .LVU942
1570:Drivers/STM32G4xx_HAL_Driver/Src/stm32g4xx_hal_rcc_ex.c ****   assert_param(IS_RCC_CRS_ERRORLIMIT(pInit->ErrorLimitValue));
 2829              		.loc 1 1570 3 view .LVU943
1571:Drivers/STM32G4xx_HAL_Driver/Src/stm32g4xx_hal_rcc_ex.c ****   assert_param(IS_RCC_CRS_HSI48CALIBRATION(pInit->HSI48CalibrationValue));
 2830              		.loc 1 1571 3 view .LVU944
ARM GAS  C:\Users\aniru.000\AppData\Local\Temp\ccGZAzIF.s 			page 88


1572:Drivers/STM32G4xx_HAL_Driver/Src/stm32g4xx_hal_rcc_ex.c **** 
1573:Drivers/STM32G4xx_HAL_Driver/Src/stm32g4xx_hal_rcc_ex.c ****   /* CONFIGURATION */
1574:Drivers/STM32G4xx_HAL_Driver/Src/stm32g4xx_hal_rcc_ex.c **** 
1575:Drivers/STM32G4xx_HAL_Driver/Src/stm32g4xx_hal_rcc_ex.c ****   /* Before configuration, reset CRS registers to their default values*/
1576:Drivers/STM32G4xx_HAL_Driver/Src/stm32g4xx_hal_rcc_ex.c ****   __HAL_RCC_CRS_FORCE_RESET();
 2831              		.loc 1 1576 3 view .LVU945
 2832 0000 104B     		ldr	r3, .L251
 2833 0002 9A6B     		ldr	r2, [r3, #56]
 2834 0004 42F48072 		orr	r2, r2, #256
 2835 0008 9A63     		str	r2, [r3, #56]
1577:Drivers/STM32G4xx_HAL_Driver/Src/stm32g4xx_hal_rcc_ex.c ****   __HAL_RCC_CRS_RELEASE_RESET();
 2836              		.loc 1 1577 3 view .LVU946
 2837 000a 9A6B     		ldr	r2, [r3, #56]
 2838 000c 22F48072 		bic	r2, r2, #256
 2839 0010 9A63     		str	r2, [r3, #56]
1578:Drivers/STM32G4xx_HAL_Driver/Src/stm32g4xx_hal_rcc_ex.c **** 
1579:Drivers/STM32G4xx_HAL_Driver/Src/stm32g4xx_hal_rcc_ex.c ****   /* Set the SYNCDIV[2:0] bits according to Prescaler value */
1580:Drivers/STM32G4xx_HAL_Driver/Src/stm32g4xx_hal_rcc_ex.c ****   /* Set the SYNCSRC[1:0] bits according to Source value */
1581:Drivers/STM32G4xx_HAL_Driver/Src/stm32g4xx_hal_rcc_ex.c ****   /* Set the SYNCSPOL bit according to Polarity value */
1582:Drivers/STM32G4xx_HAL_Driver/Src/stm32g4xx_hal_rcc_ex.c ****   value = (pInit->Prescaler | pInit->Source | pInit->Polarity);
 2840              		.loc 1 1582 3 view .LVU947
 2841              		.loc 1 1582 17 is_stmt 0 view .LVU948
 2842 0012 0368     		ldr	r3, [r0]
 2843              		.loc 1 1582 36 view .LVU949
 2844 0014 4268     		ldr	r2, [r0, #4]
 2845              		.loc 1 1582 29 view .LVU950
 2846 0016 1343     		orrs	r3, r3, r2
 2847              		.loc 1 1582 52 view .LVU951
 2848 0018 8268     		ldr	r2, [r0, #8]
 2849              		.loc 1 1582 9 view .LVU952
 2850 001a 1A43     		orrs	r2, r2, r3
 2851              	.LVL304:
1583:Drivers/STM32G4xx_HAL_Driver/Src/stm32g4xx_hal_rcc_ex.c ****   /* Set the RELOAD[15:0] bits according to ReloadValue value */
1584:Drivers/STM32G4xx_HAL_Driver/Src/stm32g4xx_hal_rcc_ex.c ****   value |= pInit->ReloadValue;
 2852              		.loc 1 1584 3 is_stmt 1 view .LVU953
 2853              		.loc 1 1584 17 is_stmt 0 view .LVU954
 2854 001c C368     		ldr	r3, [r0, #12]
 2855              		.loc 1 1584 9 view .LVU955
 2856 001e 1343     		orrs	r3, r3, r2
 2857              	.LVL305:
1585:Drivers/STM32G4xx_HAL_Driver/Src/stm32g4xx_hal_rcc_ex.c ****   /* Set the FELIM[7:0] bits according to ErrorLimitValue value */
1586:Drivers/STM32G4xx_HAL_Driver/Src/stm32g4xx_hal_rcc_ex.c ****   value |= (pInit->ErrorLimitValue << CRS_CFGR_FELIM_Pos);
 2858              		.loc 1 1586 3 is_stmt 1 view .LVU956
 2859              		.loc 1 1586 18 is_stmt 0 view .LVU957
 2860 0020 0269     		ldr	r2, [r0, #16]
 2861              		.loc 1 1586 9 view .LVU958
 2862 0022 43EA0242 		orr	r2, r3, r2, lsl #16
 2863              	.LVL306:
1587:Drivers/STM32G4xx_HAL_Driver/Src/stm32g4xx_hal_rcc_ex.c ****   WRITE_REG(CRS->CFGR, value);
 2864              		.loc 1 1587 3 is_stmt 1 view .LVU959
 2865 0026 084B     		ldr	r3, .L251+4
 2866 0028 5A60     		str	r2, [r3, #4]
1588:Drivers/STM32G4xx_HAL_Driver/Src/stm32g4xx_hal_rcc_ex.c **** 
1589:Drivers/STM32G4xx_HAL_Driver/Src/stm32g4xx_hal_rcc_ex.c ****   /* Adjust HSI48 oscillator smooth trimming */
1590:Drivers/STM32G4xx_HAL_Driver/Src/stm32g4xx_hal_rcc_ex.c ****   /* Set the TRIM[6:0] bits according to RCC_CRS_HSI48CalibrationValue value */
1591:Drivers/STM32G4xx_HAL_Driver/Src/stm32g4xx_hal_rcc_ex.c ****   MODIFY_REG(CRS->CR, CRS_CR_TRIM, (pInit->HSI48CalibrationValue << CRS_CR_TRIM_Pos));
 2867              		.loc 1 1591 3 view .LVU960
ARM GAS  C:\Users\aniru.000\AppData\Local\Temp\ccGZAzIF.s 			page 89


 2868 002a 1A68     		ldr	r2, [r3]
 2869              	.LVL307:
 2870              		.loc 1 1591 3 is_stmt 0 view .LVU961
 2871 002c 22F4FE42 		bic	r2, r2, #32512
 2872 0030 4169     		ldr	r1, [r0, #20]
 2873 0032 42EA0122 		orr	r2, r2, r1, lsl #8
 2874 0036 1A60     		str	r2, [r3]
 2875              	.LVL308:
1592:Drivers/STM32G4xx_HAL_Driver/Src/stm32g4xx_hal_rcc_ex.c **** 
1593:Drivers/STM32G4xx_HAL_Driver/Src/stm32g4xx_hal_rcc_ex.c ****   /* START AUTOMATIC SYNCHRONIZATION*/
1594:Drivers/STM32G4xx_HAL_Driver/Src/stm32g4xx_hal_rcc_ex.c **** 
1595:Drivers/STM32G4xx_HAL_Driver/Src/stm32g4xx_hal_rcc_ex.c ****   /* Enable Automatic trimming & Frequency error counter */
1596:Drivers/STM32G4xx_HAL_Driver/Src/stm32g4xx_hal_rcc_ex.c ****   SET_BIT(CRS->CR, CRS_CR_AUTOTRIMEN | CRS_CR_CEN);
 2876              		.loc 1 1596 3 is_stmt 1 view .LVU962
 2877 0038 1A68     		ldr	r2, [r3]
 2878 003a 42F06002 		orr	r2, r2, #96
 2879 003e 1A60     		str	r2, [r3]
1597:Drivers/STM32G4xx_HAL_Driver/Src/stm32g4xx_hal_rcc_ex.c **** }
 2880              		.loc 1 1597 1 is_stmt 0 view .LVU963
 2881 0040 7047     		bx	lr
 2882              	.L252:
 2883 0042 00BF     		.align	2
 2884              	.L251:
 2885 0044 00100240 		.word	1073876992
 2886 0048 00200040 		.word	1073750016
 2887              		.cfi_endproc
 2888              	.LFE142:
 2890              		.section	.text.HAL_RCCEx_CRSSoftwareSynchronizationGenerate,"ax",%progbits
 2891              		.align	1
 2892              		.global	HAL_RCCEx_CRSSoftwareSynchronizationGenerate
 2893              		.syntax unified
 2894              		.thumb
 2895              		.thumb_func
 2897              	HAL_RCCEx_CRSSoftwareSynchronizationGenerate:
 2898              	.LFB143:
1598:Drivers/STM32G4xx_HAL_Driver/Src/stm32g4xx_hal_rcc_ex.c **** 
1599:Drivers/STM32G4xx_HAL_Driver/Src/stm32g4xx_hal_rcc_ex.c **** /**
1600:Drivers/STM32G4xx_HAL_Driver/Src/stm32g4xx_hal_rcc_ex.c ****   * @brief  Generate the software synchronization event
1601:Drivers/STM32G4xx_HAL_Driver/Src/stm32g4xx_hal_rcc_ex.c ****   * @retval None
1602:Drivers/STM32G4xx_HAL_Driver/Src/stm32g4xx_hal_rcc_ex.c ****   */
1603:Drivers/STM32G4xx_HAL_Driver/Src/stm32g4xx_hal_rcc_ex.c **** void HAL_RCCEx_CRSSoftwareSynchronizationGenerate(void)
1604:Drivers/STM32G4xx_HAL_Driver/Src/stm32g4xx_hal_rcc_ex.c **** {
 2899              		.loc 1 1604 1 is_stmt 1 view -0
 2900              		.cfi_startproc
 2901              		@ args = 0, pretend = 0, frame = 0
 2902              		@ frame_needed = 0, uses_anonymous_args = 0
 2903              		@ link register save eliminated.
1605:Drivers/STM32G4xx_HAL_Driver/Src/stm32g4xx_hal_rcc_ex.c ****   SET_BIT(CRS->CR, CRS_CR_SWSYNC);
 2904              		.loc 1 1605 3 view .LVU965
 2905 0000 024A     		ldr	r2, .L254
 2906 0002 1368     		ldr	r3, [r2]
 2907 0004 43F08003 		orr	r3, r3, #128
 2908 0008 1360     		str	r3, [r2]
1606:Drivers/STM32G4xx_HAL_Driver/Src/stm32g4xx_hal_rcc_ex.c **** }
 2909              		.loc 1 1606 1 is_stmt 0 view .LVU966
 2910 000a 7047     		bx	lr
 2911              	.L255:
ARM GAS  C:\Users\aniru.000\AppData\Local\Temp\ccGZAzIF.s 			page 90


 2912              		.align	2
 2913              	.L254:
 2914 000c 00200040 		.word	1073750016
 2915              		.cfi_endproc
 2916              	.LFE143:
 2918              		.section	.text.HAL_RCCEx_CRSGetSynchronizationInfo,"ax",%progbits
 2919              		.align	1
 2920              		.global	HAL_RCCEx_CRSGetSynchronizationInfo
 2921              		.syntax unified
 2922              		.thumb
 2923              		.thumb_func
 2925              	HAL_RCCEx_CRSGetSynchronizationInfo:
 2926              	.LVL309:
 2927              	.LFB144:
1607:Drivers/STM32G4xx_HAL_Driver/Src/stm32g4xx_hal_rcc_ex.c **** 
1608:Drivers/STM32G4xx_HAL_Driver/Src/stm32g4xx_hal_rcc_ex.c **** /**
1609:Drivers/STM32G4xx_HAL_Driver/Src/stm32g4xx_hal_rcc_ex.c ****   * @brief  Return synchronization info
1610:Drivers/STM32G4xx_HAL_Driver/Src/stm32g4xx_hal_rcc_ex.c ****   * @param  pSynchroInfo Pointer on RCC_CRSSynchroInfoTypeDef structure
1611:Drivers/STM32G4xx_HAL_Driver/Src/stm32g4xx_hal_rcc_ex.c ****   * @retval None
1612:Drivers/STM32G4xx_HAL_Driver/Src/stm32g4xx_hal_rcc_ex.c ****   */
1613:Drivers/STM32G4xx_HAL_Driver/Src/stm32g4xx_hal_rcc_ex.c **** void HAL_RCCEx_CRSGetSynchronizationInfo(RCC_CRSSynchroInfoTypeDef *pSynchroInfo)
1614:Drivers/STM32G4xx_HAL_Driver/Src/stm32g4xx_hal_rcc_ex.c **** {
 2928              		.loc 1 1614 1 is_stmt 1 view -0
 2929              		.cfi_startproc
 2930              		@ args = 0, pretend = 0, frame = 0
 2931              		@ frame_needed = 0, uses_anonymous_args = 0
 2932              		@ link register save eliminated.
1615:Drivers/STM32G4xx_HAL_Driver/Src/stm32g4xx_hal_rcc_ex.c ****   /* Check the parameter */
1616:Drivers/STM32G4xx_HAL_Driver/Src/stm32g4xx_hal_rcc_ex.c ****   assert_param(pSynchroInfo != (void *)NULL);
 2933              		.loc 1 1616 3 view .LVU968
1617:Drivers/STM32G4xx_HAL_Driver/Src/stm32g4xx_hal_rcc_ex.c **** 
1618:Drivers/STM32G4xx_HAL_Driver/Src/stm32g4xx_hal_rcc_ex.c ****   /* Get the reload value */
1619:Drivers/STM32G4xx_HAL_Driver/Src/stm32g4xx_hal_rcc_ex.c ****   pSynchroInfo->ReloadValue = (READ_BIT(CRS->CFGR, CRS_CFGR_RELOAD));
 2934              		.loc 1 1619 3 view .LVU969
 2935              		.loc 1 1619 32 is_stmt 0 view .LVU970
 2936 0000 074B     		ldr	r3, .L257
 2937 0002 5A68     		ldr	r2, [r3, #4]
 2938 0004 92B2     		uxth	r2, r2
 2939              		.loc 1 1619 29 view .LVU971
 2940 0006 0260     		str	r2, [r0]
1620:Drivers/STM32G4xx_HAL_Driver/Src/stm32g4xx_hal_rcc_ex.c **** 
1621:Drivers/STM32G4xx_HAL_Driver/Src/stm32g4xx_hal_rcc_ex.c ****   /* Get HSI48 oscillator smooth trimming */
1622:Drivers/STM32G4xx_HAL_Driver/Src/stm32g4xx_hal_rcc_ex.c ****   pSynchroInfo->HSI48CalibrationValue = (READ_BIT(CRS->CR, CRS_CR_TRIM) >> CRS_CR_TRIM_Pos);
 2941              		.loc 1 1622 3 is_stmt 1 view .LVU972
 2942              		.loc 1 1622 42 is_stmt 0 view .LVU973
 2943 0008 1A68     		ldr	r2, [r3]
 2944              		.loc 1 1622 73 view .LVU974
 2945 000a C2F30622 		ubfx	r2, r2, #8, #7
 2946              		.loc 1 1622 39 view .LVU975
 2947 000e 4260     		str	r2, [r0, #4]
1623:Drivers/STM32G4xx_HAL_Driver/Src/stm32g4xx_hal_rcc_ex.c **** 
1624:Drivers/STM32G4xx_HAL_Driver/Src/stm32g4xx_hal_rcc_ex.c ****   /* Get Frequency error capture */
1625:Drivers/STM32G4xx_HAL_Driver/Src/stm32g4xx_hal_rcc_ex.c ****   pSynchroInfo->FreqErrorCapture = (READ_BIT(CRS->ISR, CRS_ISR_FECAP) >> CRS_ISR_FECAP_Pos);
 2948              		.loc 1 1625 3 is_stmt 1 view .LVU976
 2949              		.loc 1 1625 37 is_stmt 0 view .LVU977
 2950 0010 9A68     		ldr	r2, [r3, #8]
 2951              		.loc 1 1625 71 view .LVU978
ARM GAS  C:\Users\aniru.000\AppData\Local\Temp\ccGZAzIF.s 			page 91


 2952 0012 120C     		lsrs	r2, r2, #16
 2953              		.loc 1 1625 34 view .LVU979
 2954 0014 8260     		str	r2, [r0, #8]
1626:Drivers/STM32G4xx_HAL_Driver/Src/stm32g4xx_hal_rcc_ex.c **** 
1627:Drivers/STM32G4xx_HAL_Driver/Src/stm32g4xx_hal_rcc_ex.c ****   /* Get Frequency error direction */
1628:Drivers/STM32G4xx_HAL_Driver/Src/stm32g4xx_hal_rcc_ex.c ****   pSynchroInfo->FreqErrorDirection = (READ_BIT(CRS->ISR, CRS_ISR_FEDIR));
 2955              		.loc 1 1628 3 is_stmt 1 view .LVU980
 2956              		.loc 1 1628 39 is_stmt 0 view .LVU981
 2957 0016 9B68     		ldr	r3, [r3, #8]
 2958 0018 03F40043 		and	r3, r3, #32768
 2959              		.loc 1 1628 36 view .LVU982
 2960 001c C360     		str	r3, [r0, #12]
1629:Drivers/STM32G4xx_HAL_Driver/Src/stm32g4xx_hal_rcc_ex.c **** }
 2961              		.loc 1 1629 1 view .LVU983
 2962 001e 7047     		bx	lr
 2963              	.L258:
 2964              		.align	2
 2965              	.L257:
 2966 0020 00200040 		.word	1073750016
 2967              		.cfi_endproc
 2968              	.LFE144:
 2970              		.section	.text.HAL_RCCEx_CRSWaitSynchronization,"ax",%progbits
 2971              		.align	1
 2972              		.global	HAL_RCCEx_CRSWaitSynchronization
 2973              		.syntax unified
 2974              		.thumb
 2975              		.thumb_func
 2977              	HAL_RCCEx_CRSWaitSynchronization:
 2978              	.LVL310:
 2979              	.LFB145:
1630:Drivers/STM32G4xx_HAL_Driver/Src/stm32g4xx_hal_rcc_ex.c **** 
1631:Drivers/STM32G4xx_HAL_Driver/Src/stm32g4xx_hal_rcc_ex.c **** /**
1632:Drivers/STM32G4xx_HAL_Driver/Src/stm32g4xx_hal_rcc_ex.c **** * @brief Wait for CRS Synchronization status.
1633:Drivers/STM32G4xx_HAL_Driver/Src/stm32g4xx_hal_rcc_ex.c **** * @param Timeout  Duration of the timeout
1634:Drivers/STM32G4xx_HAL_Driver/Src/stm32g4xx_hal_rcc_ex.c **** * @note  Timeout is based on the maximum time to receive a SYNC event based on synchronization
1635:Drivers/STM32G4xx_HAL_Driver/Src/stm32g4xx_hal_rcc_ex.c **** *        frequency.
1636:Drivers/STM32G4xx_HAL_Driver/Src/stm32g4xx_hal_rcc_ex.c **** * @note    If Timeout set to HAL_MAX_DELAY, HAL_TIMEOUT will be never returned.
1637:Drivers/STM32G4xx_HAL_Driver/Src/stm32g4xx_hal_rcc_ex.c **** * @retval Combination of Synchronization status
1638:Drivers/STM32G4xx_HAL_Driver/Src/stm32g4xx_hal_rcc_ex.c **** *          This parameter can be a combination of the following values:
1639:Drivers/STM32G4xx_HAL_Driver/Src/stm32g4xx_hal_rcc_ex.c **** *            @arg @ref RCC_CRS_TIMEOUT
1640:Drivers/STM32G4xx_HAL_Driver/Src/stm32g4xx_hal_rcc_ex.c **** *            @arg @ref RCC_CRS_SYNCOK
1641:Drivers/STM32G4xx_HAL_Driver/Src/stm32g4xx_hal_rcc_ex.c **** *            @arg @ref RCC_CRS_SYNCWARN
1642:Drivers/STM32G4xx_HAL_Driver/Src/stm32g4xx_hal_rcc_ex.c **** *            @arg @ref RCC_CRS_SYNCERR
1643:Drivers/STM32G4xx_HAL_Driver/Src/stm32g4xx_hal_rcc_ex.c **** *            @arg @ref RCC_CRS_SYNCMISS
1644:Drivers/STM32G4xx_HAL_Driver/Src/stm32g4xx_hal_rcc_ex.c **** *            @arg @ref RCC_CRS_TRIMOVF
1645:Drivers/STM32G4xx_HAL_Driver/Src/stm32g4xx_hal_rcc_ex.c **** */
1646:Drivers/STM32G4xx_HAL_Driver/Src/stm32g4xx_hal_rcc_ex.c **** uint32_t HAL_RCCEx_CRSWaitSynchronization(uint32_t Timeout)
1647:Drivers/STM32G4xx_HAL_Driver/Src/stm32g4xx_hal_rcc_ex.c **** {
 2980              		.loc 1 1647 1 is_stmt 1 view -0
 2981              		.cfi_startproc
 2982              		@ args = 0, pretend = 0, frame = 0
 2983              		@ frame_needed = 0, uses_anonymous_args = 0
 2984              		.loc 1 1647 1 is_stmt 0 view .LVU985
 2985 0000 70B5     		push	{r4, r5, r6, lr}
 2986              		.cfi_def_cfa_offset 16
 2987              		.cfi_offset 4, -16
 2988              		.cfi_offset 5, -12
ARM GAS  C:\Users\aniru.000\AppData\Local\Temp\ccGZAzIF.s 			page 92


 2989              		.cfi_offset 6, -8
 2990              		.cfi_offset 14, -4
 2991 0002 0546     		mov	r5, r0
1648:Drivers/STM32G4xx_HAL_Driver/Src/stm32g4xx_hal_rcc_ex.c ****   uint32_t crsstatus = RCC_CRS_NONE;
 2992              		.loc 1 1648 3 is_stmt 1 view .LVU986
 2993              	.LVL311:
1649:Drivers/STM32G4xx_HAL_Driver/Src/stm32g4xx_hal_rcc_ex.c ****   uint32_t tickstart;
 2994              		.loc 1 1649 3 view .LVU987
1650:Drivers/STM32G4xx_HAL_Driver/Src/stm32g4xx_hal_rcc_ex.c **** 
1651:Drivers/STM32G4xx_HAL_Driver/Src/stm32g4xx_hal_rcc_ex.c ****   /* Get timeout */
1652:Drivers/STM32G4xx_HAL_Driver/Src/stm32g4xx_hal_rcc_ex.c ****   tickstart = HAL_GetTick();
 2995              		.loc 1 1652 3 view .LVU988
 2996              		.loc 1 1652 15 is_stmt 0 view .LVU989
 2997 0004 FFF7FEFF 		bl	HAL_GetTick
 2998              	.LVL312:
 2999              		.loc 1 1652 15 view .LVU990
 3000 0008 0646     		mov	r6, r0
 3001              	.LVL313:
1648:Drivers/STM32G4xx_HAL_Driver/Src/stm32g4xx_hal_rcc_ex.c ****   uint32_t tickstart;
 3002              		.loc 1 1648 12 view .LVU991
 3003 000a 0024     		movs	r4, #0
 3004 000c 0BE0     		b	.L267
 3005              	.LVL314:
 3006              	.L272:
1653:Drivers/STM32G4xx_HAL_Driver/Src/stm32g4xx_hal_rcc_ex.c **** 
1654:Drivers/STM32G4xx_HAL_Driver/Src/stm32g4xx_hal_rcc_ex.c ****   /* Wait for CRS flag or timeout detection */
1655:Drivers/STM32G4xx_HAL_Driver/Src/stm32g4xx_hal_rcc_ex.c ****   do
1656:Drivers/STM32G4xx_HAL_Driver/Src/stm32g4xx_hal_rcc_ex.c ****   {
1657:Drivers/STM32G4xx_HAL_Driver/Src/stm32g4xx_hal_rcc_ex.c ****     if(Timeout != HAL_MAX_DELAY)
1658:Drivers/STM32G4xx_HAL_Driver/Src/stm32g4xx_hal_rcc_ex.c ****     {
1659:Drivers/STM32G4xx_HAL_Driver/Src/stm32g4xx_hal_rcc_ex.c ****       if(((HAL_GetTick() - tickstart) > Timeout) || (Timeout == 0U))
 3007              		.loc 1 1659 7 is_stmt 1 view .LVU992
 3008              		.loc 1 1659 12 is_stmt 0 view .LVU993
 3009 000e FFF7FEFF 		bl	HAL_GetTick
 3010              	.LVL315:
 3011              		.loc 1 1659 26 discriminator 1 view .LVU994
 3012 0012 801B     		subs	r0, r0, r6
 3013              		.loc 1 1659 9 discriminator 1 view .LVU995
 3014 0014 A842     		cmp	r0, r5
 3015 0016 02D8     		bhi	.L268
 3016              		.loc 1 1659 50 discriminator 2 view .LVU996
 3017 0018 45B9     		cbnz	r5, .L260
1660:Drivers/STM32G4xx_HAL_Driver/Src/stm32g4xx_hal_rcc_ex.c ****       {
1661:Drivers/STM32G4xx_HAL_Driver/Src/stm32g4xx_hal_rcc_ex.c ****         crsstatus = RCC_CRS_TIMEOUT;
 3018              		.loc 1 1661 19 view .LVU997
 3019 001a 0124     		movs	r4, #1
 3020              	.LVL316:
 3021              		.loc 1 1661 19 view .LVU998
 3022 001c 06E0     		b	.L260
 3023              	.LVL317:
 3024              	.L268:
 3025              		.loc 1 1661 19 view .LVU999
 3026 001e 0124     		movs	r4, #1
 3027              	.LVL318:
 3028              		.loc 1 1661 19 view .LVU1000
 3029 0020 04E0     		b	.L260
 3030              	.LVL319:
ARM GAS  C:\Users\aniru.000\AppData\Local\Temp\ccGZAzIF.s 			page 93


 3031              	.L266:
1662:Drivers/STM32G4xx_HAL_Driver/Src/stm32g4xx_hal_rcc_ex.c ****       }
1663:Drivers/STM32G4xx_HAL_Driver/Src/stm32g4xx_hal_rcc_ex.c ****     }
1664:Drivers/STM32G4xx_HAL_Driver/Src/stm32g4xx_hal_rcc_ex.c ****     /* Check CRS SYNCOK flag  */
1665:Drivers/STM32G4xx_HAL_Driver/Src/stm32g4xx_hal_rcc_ex.c ****     if(__HAL_RCC_CRS_GET_FLAG(RCC_CRS_FLAG_SYNCOK))
1666:Drivers/STM32G4xx_HAL_Driver/Src/stm32g4xx_hal_rcc_ex.c ****     {
1667:Drivers/STM32G4xx_HAL_Driver/Src/stm32g4xx_hal_rcc_ex.c ****       /* CRS SYNC event OK */
1668:Drivers/STM32G4xx_HAL_Driver/Src/stm32g4xx_hal_rcc_ex.c ****       crsstatus |= RCC_CRS_SYNCOK;
1669:Drivers/STM32G4xx_HAL_Driver/Src/stm32g4xx_hal_rcc_ex.c **** 
1670:Drivers/STM32G4xx_HAL_Driver/Src/stm32g4xx_hal_rcc_ex.c ****       /* Clear CRS SYNC event OK bit */
1671:Drivers/STM32G4xx_HAL_Driver/Src/stm32g4xx_hal_rcc_ex.c ****       __HAL_RCC_CRS_CLEAR_FLAG(RCC_CRS_FLAG_SYNCOK);
1672:Drivers/STM32G4xx_HAL_Driver/Src/stm32g4xx_hal_rcc_ex.c ****     }
1673:Drivers/STM32G4xx_HAL_Driver/Src/stm32g4xx_hal_rcc_ex.c **** 
1674:Drivers/STM32G4xx_HAL_Driver/Src/stm32g4xx_hal_rcc_ex.c ****     /* Check CRS SYNCWARN flag  */
1675:Drivers/STM32G4xx_HAL_Driver/Src/stm32g4xx_hal_rcc_ex.c ****     if(__HAL_RCC_CRS_GET_FLAG(RCC_CRS_FLAG_SYNCWARN))
1676:Drivers/STM32G4xx_HAL_Driver/Src/stm32g4xx_hal_rcc_ex.c ****     {
1677:Drivers/STM32G4xx_HAL_Driver/Src/stm32g4xx_hal_rcc_ex.c ****       /* CRS SYNC warning */
1678:Drivers/STM32G4xx_HAL_Driver/Src/stm32g4xx_hal_rcc_ex.c ****       crsstatus |= RCC_CRS_SYNCWARN;
1679:Drivers/STM32G4xx_HAL_Driver/Src/stm32g4xx_hal_rcc_ex.c **** 
1680:Drivers/STM32G4xx_HAL_Driver/Src/stm32g4xx_hal_rcc_ex.c ****       /* Clear CRS SYNCWARN bit */
1681:Drivers/STM32G4xx_HAL_Driver/Src/stm32g4xx_hal_rcc_ex.c ****       __HAL_RCC_CRS_CLEAR_FLAG(RCC_CRS_FLAG_SYNCWARN);
1682:Drivers/STM32G4xx_HAL_Driver/Src/stm32g4xx_hal_rcc_ex.c ****     }
1683:Drivers/STM32G4xx_HAL_Driver/Src/stm32g4xx_hal_rcc_ex.c **** 
1684:Drivers/STM32G4xx_HAL_Driver/Src/stm32g4xx_hal_rcc_ex.c ****     /* Check CRS TRIM overflow flag  */
1685:Drivers/STM32G4xx_HAL_Driver/Src/stm32g4xx_hal_rcc_ex.c ****     if(__HAL_RCC_CRS_GET_FLAG(RCC_CRS_FLAG_TRIMOVF))
1686:Drivers/STM32G4xx_HAL_Driver/Src/stm32g4xx_hal_rcc_ex.c ****     {
1687:Drivers/STM32G4xx_HAL_Driver/Src/stm32g4xx_hal_rcc_ex.c ****       /* CRS SYNC Error */
1688:Drivers/STM32G4xx_HAL_Driver/Src/stm32g4xx_hal_rcc_ex.c ****       crsstatus |= RCC_CRS_TRIMOVF;
1689:Drivers/STM32G4xx_HAL_Driver/Src/stm32g4xx_hal_rcc_ex.c **** 
1690:Drivers/STM32G4xx_HAL_Driver/Src/stm32g4xx_hal_rcc_ex.c ****       /* Clear CRS Error bit */
1691:Drivers/STM32G4xx_HAL_Driver/Src/stm32g4xx_hal_rcc_ex.c ****       __HAL_RCC_CRS_CLEAR_FLAG(RCC_CRS_FLAG_TRIMOVF);
1692:Drivers/STM32G4xx_HAL_Driver/Src/stm32g4xx_hal_rcc_ex.c ****     }
1693:Drivers/STM32G4xx_HAL_Driver/Src/stm32g4xx_hal_rcc_ex.c **** 
1694:Drivers/STM32G4xx_HAL_Driver/Src/stm32g4xx_hal_rcc_ex.c ****     /* Check CRS Error flag  */
1695:Drivers/STM32G4xx_HAL_Driver/Src/stm32g4xx_hal_rcc_ex.c ****     if(__HAL_RCC_CRS_GET_FLAG(RCC_CRS_FLAG_SYNCERR))
1696:Drivers/STM32G4xx_HAL_Driver/Src/stm32g4xx_hal_rcc_ex.c ****     {
1697:Drivers/STM32G4xx_HAL_Driver/Src/stm32g4xx_hal_rcc_ex.c ****       /* CRS SYNC Error */
1698:Drivers/STM32G4xx_HAL_Driver/Src/stm32g4xx_hal_rcc_ex.c ****       crsstatus |= RCC_CRS_SYNCERR;
1699:Drivers/STM32G4xx_HAL_Driver/Src/stm32g4xx_hal_rcc_ex.c **** 
1700:Drivers/STM32G4xx_HAL_Driver/Src/stm32g4xx_hal_rcc_ex.c ****       /* Clear CRS Error bit */
1701:Drivers/STM32G4xx_HAL_Driver/Src/stm32g4xx_hal_rcc_ex.c ****       __HAL_RCC_CRS_CLEAR_FLAG(RCC_CRS_FLAG_SYNCERR);
1702:Drivers/STM32G4xx_HAL_Driver/Src/stm32g4xx_hal_rcc_ex.c ****     }
1703:Drivers/STM32G4xx_HAL_Driver/Src/stm32g4xx_hal_rcc_ex.c **** 
1704:Drivers/STM32G4xx_HAL_Driver/Src/stm32g4xx_hal_rcc_ex.c ****     /* Check CRS SYNC Missed flag  */
1705:Drivers/STM32G4xx_HAL_Driver/Src/stm32g4xx_hal_rcc_ex.c ****     if(__HAL_RCC_CRS_GET_FLAG(RCC_CRS_FLAG_SYNCMISS))
1706:Drivers/STM32G4xx_HAL_Driver/Src/stm32g4xx_hal_rcc_ex.c ****     {
1707:Drivers/STM32G4xx_HAL_Driver/Src/stm32g4xx_hal_rcc_ex.c ****       /* CRS SYNC Missed */
1708:Drivers/STM32G4xx_HAL_Driver/Src/stm32g4xx_hal_rcc_ex.c ****       crsstatus |= RCC_CRS_SYNCMISS;
1709:Drivers/STM32G4xx_HAL_Driver/Src/stm32g4xx_hal_rcc_ex.c **** 
1710:Drivers/STM32G4xx_HAL_Driver/Src/stm32g4xx_hal_rcc_ex.c ****       /* Clear CRS SYNC Missed bit */
1711:Drivers/STM32G4xx_HAL_Driver/Src/stm32g4xx_hal_rcc_ex.c ****       __HAL_RCC_CRS_CLEAR_FLAG(RCC_CRS_FLAG_SYNCMISS);
1712:Drivers/STM32G4xx_HAL_Driver/Src/stm32g4xx_hal_rcc_ex.c ****     }
1713:Drivers/STM32G4xx_HAL_Driver/Src/stm32g4xx_hal_rcc_ex.c **** 
1714:Drivers/STM32G4xx_HAL_Driver/Src/stm32g4xx_hal_rcc_ex.c ****     /* Check CRS Expected SYNC flag  */
1715:Drivers/STM32G4xx_HAL_Driver/Src/stm32g4xx_hal_rcc_ex.c ****     if(__HAL_RCC_CRS_GET_FLAG(RCC_CRS_FLAG_ESYNC))
1716:Drivers/STM32G4xx_HAL_Driver/Src/stm32g4xx_hal_rcc_ex.c ****     {
1717:Drivers/STM32G4xx_HAL_Driver/Src/stm32g4xx_hal_rcc_ex.c ****       /* frequency error counter reached a zero value */
ARM GAS  C:\Users\aniru.000\AppData\Local\Temp\ccGZAzIF.s 			page 94


1718:Drivers/STM32G4xx_HAL_Driver/Src/stm32g4xx_hal_rcc_ex.c ****       __HAL_RCC_CRS_CLEAR_FLAG(RCC_CRS_FLAG_ESYNC);
 3032              		.loc 1 1718 7 is_stmt 1 view .LVU1001
1719:Drivers/STM32G4xx_HAL_Driver/Src/stm32g4xx_hal_rcc_ex.c ****     }
1720:Drivers/STM32G4xx_HAL_Driver/Src/stm32g4xx_hal_rcc_ex.c ****   } while(RCC_CRS_NONE == crsstatus);
 3033              		.loc 1 1720 24 view .LVU1002
 3034 0022 002C     		cmp	r4, #0
 3035 0024 3DD1     		bne	.L271
 3036              	.LVL320:
 3037              	.L267:
1655:Drivers/STM32G4xx_HAL_Driver/Src/stm32g4xx_hal_rcc_ex.c ****   {
 3038              		.loc 1 1655 3 view .LVU1003
1657:Drivers/STM32G4xx_HAL_Driver/Src/stm32g4xx_hal_rcc_ex.c ****     {
 3039              		.loc 1 1657 5 view .LVU1004
1657:Drivers/STM32G4xx_HAL_Driver/Src/stm32g4xx_hal_rcc_ex.c ****     {
 3040              		.loc 1 1657 7 is_stmt 0 view .LVU1005
 3041 0026 B5F1FF3F 		cmp	r5, #-1
 3042 002a F0D1     		bne	.L272
 3043              	.LVL321:
 3044              	.L260:
1665:Drivers/STM32G4xx_HAL_Driver/Src/stm32g4xx_hal_rcc_ex.c ****     {
 3045              		.loc 1 1665 5 is_stmt 1 view .LVU1006
1665:Drivers/STM32G4xx_HAL_Driver/Src/stm32g4xx_hal_rcc_ex.c ****     {
 3046              		.loc 1 1665 8 is_stmt 0 view .LVU1007
 3047 002c 1E4B     		ldr	r3, .L273
 3048 002e 9B68     		ldr	r3, [r3, #8]
1665:Drivers/STM32G4xx_HAL_Driver/Src/stm32g4xx_hal_rcc_ex.c ****     {
 3049              		.loc 1 1665 7 view .LVU1008
 3050 0030 13F0010F 		tst	r3, #1
 3051 0034 04D0     		beq	.L261
1668:Drivers/STM32G4xx_HAL_Driver/Src/stm32g4xx_hal_rcc_ex.c **** 
 3052              		.loc 1 1668 7 is_stmt 1 view .LVU1009
1668:Drivers/STM32G4xx_HAL_Driver/Src/stm32g4xx_hal_rcc_ex.c **** 
 3053              		.loc 1 1668 17 is_stmt 0 view .LVU1010
 3054 0036 44F00204 		orr	r4, r4, #2
 3055              	.LVL322:
1671:Drivers/STM32G4xx_HAL_Driver/Src/stm32g4xx_hal_rcc_ex.c ****     }
 3056              		.loc 1 1671 7 is_stmt 1 view .LVU1011
1671:Drivers/STM32G4xx_HAL_Driver/Src/stm32g4xx_hal_rcc_ex.c ****     }
 3057              		.loc 1 1671 7 view .LVU1012
1671:Drivers/STM32G4xx_HAL_Driver/Src/stm32g4xx_hal_rcc_ex.c ****     }
 3058              		.loc 1 1671 7 discriminator 2 view .LVU1013
 3059 003a 1B4B     		ldr	r3, .L273
 3060 003c 0122     		movs	r2, #1
 3061 003e DA60     		str	r2, [r3, #12]
 3062              	.L261:
1671:Drivers/STM32G4xx_HAL_Driver/Src/stm32g4xx_hal_rcc_ex.c ****     }
 3063              		.loc 1 1671 7 view .LVU1014
1675:Drivers/STM32G4xx_HAL_Driver/Src/stm32g4xx_hal_rcc_ex.c ****     {
 3064              		.loc 1 1675 5 view .LVU1015
1675:Drivers/STM32G4xx_HAL_Driver/Src/stm32g4xx_hal_rcc_ex.c ****     {
 3065              		.loc 1 1675 8 is_stmt 0 view .LVU1016
 3066 0040 194B     		ldr	r3, .L273
 3067 0042 9B68     		ldr	r3, [r3, #8]
1675:Drivers/STM32G4xx_HAL_Driver/Src/stm32g4xx_hal_rcc_ex.c ****     {
 3068              		.loc 1 1675 7 view .LVU1017
 3069 0044 13F0020F 		tst	r3, #2
 3070 0048 04D0     		beq	.L262
ARM GAS  C:\Users\aniru.000\AppData\Local\Temp\ccGZAzIF.s 			page 95


1678:Drivers/STM32G4xx_HAL_Driver/Src/stm32g4xx_hal_rcc_ex.c **** 
 3071              		.loc 1 1678 7 is_stmt 1 view .LVU1018
1678:Drivers/STM32G4xx_HAL_Driver/Src/stm32g4xx_hal_rcc_ex.c **** 
 3072              		.loc 1 1678 17 is_stmt 0 view .LVU1019
 3073 004a 44F00404 		orr	r4, r4, #4
 3074              	.LVL323:
1681:Drivers/STM32G4xx_HAL_Driver/Src/stm32g4xx_hal_rcc_ex.c ****     }
 3075              		.loc 1 1681 7 is_stmt 1 view .LVU1020
1681:Drivers/STM32G4xx_HAL_Driver/Src/stm32g4xx_hal_rcc_ex.c ****     }
 3076              		.loc 1 1681 7 view .LVU1021
1681:Drivers/STM32G4xx_HAL_Driver/Src/stm32g4xx_hal_rcc_ex.c ****     }
 3077              		.loc 1 1681 7 discriminator 2 view .LVU1022
 3078 004e 164B     		ldr	r3, .L273
 3079 0050 0222     		movs	r2, #2
 3080 0052 DA60     		str	r2, [r3, #12]
 3081              	.L262:
1681:Drivers/STM32G4xx_HAL_Driver/Src/stm32g4xx_hal_rcc_ex.c ****     }
 3082              		.loc 1 1681 7 view .LVU1023
1685:Drivers/STM32G4xx_HAL_Driver/Src/stm32g4xx_hal_rcc_ex.c ****     {
 3083              		.loc 1 1685 5 view .LVU1024
1685:Drivers/STM32G4xx_HAL_Driver/Src/stm32g4xx_hal_rcc_ex.c ****     {
 3084              		.loc 1 1685 8 is_stmt 0 view .LVU1025
 3085 0054 144B     		ldr	r3, .L273
 3086 0056 9B68     		ldr	r3, [r3, #8]
1685:Drivers/STM32G4xx_HAL_Driver/Src/stm32g4xx_hal_rcc_ex.c ****     {
 3087              		.loc 1 1685 7 view .LVU1026
 3088 0058 13F4806F 		tst	r3, #1024
 3089 005c 04D0     		beq	.L263
1688:Drivers/STM32G4xx_HAL_Driver/Src/stm32g4xx_hal_rcc_ex.c **** 
 3090              		.loc 1 1688 7 is_stmt 1 view .LVU1027
1688:Drivers/STM32G4xx_HAL_Driver/Src/stm32g4xx_hal_rcc_ex.c **** 
 3091              		.loc 1 1688 17 is_stmt 0 view .LVU1028
 3092 005e 44F02004 		orr	r4, r4, #32
 3093              	.LVL324:
1691:Drivers/STM32G4xx_HAL_Driver/Src/stm32g4xx_hal_rcc_ex.c ****     }
 3094              		.loc 1 1691 7 is_stmt 1 view .LVU1029
1691:Drivers/STM32G4xx_HAL_Driver/Src/stm32g4xx_hal_rcc_ex.c ****     }
 3095              		.loc 1 1691 7 view .LVU1030
1691:Drivers/STM32G4xx_HAL_Driver/Src/stm32g4xx_hal_rcc_ex.c ****     }
 3096              		.loc 1 1691 7 discriminator 1 view .LVU1031
 3097 0062 114B     		ldr	r3, .L273
 3098 0064 0422     		movs	r2, #4
 3099 0066 DA60     		str	r2, [r3, #12]
 3100              	.L263:
1691:Drivers/STM32G4xx_HAL_Driver/Src/stm32g4xx_hal_rcc_ex.c ****     }
 3101              		.loc 1 1691 7 view .LVU1032
1695:Drivers/STM32G4xx_HAL_Driver/Src/stm32g4xx_hal_rcc_ex.c ****     {
 3102              		.loc 1 1695 5 view .LVU1033
1695:Drivers/STM32G4xx_HAL_Driver/Src/stm32g4xx_hal_rcc_ex.c ****     {
 3103              		.loc 1 1695 8 is_stmt 0 view .LVU1034
 3104 0068 0F4B     		ldr	r3, .L273
 3105 006a 9B68     		ldr	r3, [r3, #8]
1695:Drivers/STM32G4xx_HAL_Driver/Src/stm32g4xx_hal_rcc_ex.c ****     {
 3106              		.loc 1 1695 7 view .LVU1035
 3107 006c 13F4807F 		tst	r3, #256
 3108 0070 04D0     		beq	.L264
1698:Drivers/STM32G4xx_HAL_Driver/Src/stm32g4xx_hal_rcc_ex.c **** 
ARM GAS  C:\Users\aniru.000\AppData\Local\Temp\ccGZAzIF.s 			page 96


 3109              		.loc 1 1698 7 is_stmt 1 view .LVU1036
1698:Drivers/STM32G4xx_HAL_Driver/Src/stm32g4xx_hal_rcc_ex.c **** 
 3110              		.loc 1 1698 17 is_stmt 0 view .LVU1037
 3111 0072 44F00804 		orr	r4, r4, #8
 3112              	.LVL325:
1701:Drivers/STM32G4xx_HAL_Driver/Src/stm32g4xx_hal_rcc_ex.c ****     }
 3113              		.loc 1 1701 7 is_stmt 1 view .LVU1038
1701:Drivers/STM32G4xx_HAL_Driver/Src/stm32g4xx_hal_rcc_ex.c ****     }
 3114              		.loc 1 1701 7 view .LVU1039
1701:Drivers/STM32G4xx_HAL_Driver/Src/stm32g4xx_hal_rcc_ex.c ****     }
 3115              		.loc 1 1701 7 discriminator 1 view .LVU1040
 3116 0076 0C4B     		ldr	r3, .L273
 3117 0078 0422     		movs	r2, #4
 3118 007a DA60     		str	r2, [r3, #12]
 3119              	.L264:
1701:Drivers/STM32G4xx_HAL_Driver/Src/stm32g4xx_hal_rcc_ex.c ****     }
 3120              		.loc 1 1701 7 view .LVU1041
1705:Drivers/STM32G4xx_HAL_Driver/Src/stm32g4xx_hal_rcc_ex.c ****     {
 3121              		.loc 1 1705 5 view .LVU1042
1705:Drivers/STM32G4xx_HAL_Driver/Src/stm32g4xx_hal_rcc_ex.c ****     {
 3122              		.loc 1 1705 8 is_stmt 0 view .LVU1043
 3123 007c 0A4B     		ldr	r3, .L273
 3124 007e 9B68     		ldr	r3, [r3, #8]
1705:Drivers/STM32G4xx_HAL_Driver/Src/stm32g4xx_hal_rcc_ex.c ****     {
 3125              		.loc 1 1705 7 view .LVU1044
 3126 0080 13F4007F 		tst	r3, #512
 3127 0084 04D0     		beq	.L265
1708:Drivers/STM32G4xx_HAL_Driver/Src/stm32g4xx_hal_rcc_ex.c **** 
 3128              		.loc 1 1708 7 is_stmt 1 view .LVU1045
1708:Drivers/STM32G4xx_HAL_Driver/Src/stm32g4xx_hal_rcc_ex.c **** 
 3129              		.loc 1 1708 17 is_stmt 0 view .LVU1046
 3130 0086 44F01004 		orr	r4, r4, #16
 3131              	.LVL326:
1711:Drivers/STM32G4xx_HAL_Driver/Src/stm32g4xx_hal_rcc_ex.c ****     }
 3132              		.loc 1 1711 7 is_stmt 1 view .LVU1047
1711:Drivers/STM32G4xx_HAL_Driver/Src/stm32g4xx_hal_rcc_ex.c ****     }
 3133              		.loc 1 1711 7 view .LVU1048
1711:Drivers/STM32G4xx_HAL_Driver/Src/stm32g4xx_hal_rcc_ex.c ****     }
 3134              		.loc 1 1711 7 discriminator 1 view .LVU1049
 3135 008a 074B     		ldr	r3, .L273
 3136 008c 0422     		movs	r2, #4
 3137 008e DA60     		str	r2, [r3, #12]
 3138              	.L265:
1711:Drivers/STM32G4xx_HAL_Driver/Src/stm32g4xx_hal_rcc_ex.c ****     }
 3139              		.loc 1 1711 7 view .LVU1050
1715:Drivers/STM32G4xx_HAL_Driver/Src/stm32g4xx_hal_rcc_ex.c ****     {
 3140              		.loc 1 1715 5 view .LVU1051
1715:Drivers/STM32G4xx_HAL_Driver/Src/stm32g4xx_hal_rcc_ex.c ****     {
 3141              		.loc 1 1715 8 is_stmt 0 view .LVU1052
 3142 0090 054B     		ldr	r3, .L273
 3143 0092 9B68     		ldr	r3, [r3, #8]
1715:Drivers/STM32G4xx_HAL_Driver/Src/stm32g4xx_hal_rcc_ex.c ****     {
 3144              		.loc 1 1715 7 view .LVU1053
 3145 0094 13F0080F 		tst	r3, #8
 3146 0098 C3D0     		beq	.L266
1718:Drivers/STM32G4xx_HAL_Driver/Src/stm32g4xx_hal_rcc_ex.c ****     }
 3147              		.loc 1 1718 7 is_stmt 1 view .LVU1054
ARM GAS  C:\Users\aniru.000\AppData\Local\Temp\ccGZAzIF.s 			page 97


1718:Drivers/STM32G4xx_HAL_Driver/Src/stm32g4xx_hal_rcc_ex.c ****     }
 3148              		.loc 1 1718 7 view .LVU1055
1718:Drivers/STM32G4xx_HAL_Driver/Src/stm32g4xx_hal_rcc_ex.c ****     }
 3149              		.loc 1 1718 7 discriminator 2 view .LVU1056
 3150 009a 034B     		ldr	r3, .L273
 3151 009c 0822     		movs	r2, #8
 3152 009e DA60     		str	r2, [r3, #12]
 3153 00a0 BFE7     		b	.L266
 3154              	.L271:
1721:Drivers/STM32G4xx_HAL_Driver/Src/stm32g4xx_hal_rcc_ex.c **** 
1722:Drivers/STM32G4xx_HAL_Driver/Src/stm32g4xx_hal_rcc_ex.c ****   return crsstatus;
 3155              		.loc 1 1722 3 view .LVU1057
1723:Drivers/STM32G4xx_HAL_Driver/Src/stm32g4xx_hal_rcc_ex.c **** }
 3156              		.loc 1 1723 1 is_stmt 0 view .LVU1058
 3157 00a2 2046     		mov	r0, r4
 3158 00a4 70BD     		pop	{r4, r5, r6, pc}
 3159              	.LVL327:
 3160              	.L274:
 3161              		.loc 1 1723 1 view .LVU1059
 3162 00a6 00BF     		.align	2
 3163              	.L273:
 3164 00a8 00200040 		.word	1073750016
 3165              		.cfi_endproc
 3166              	.LFE145:
 3168              		.section	.text.HAL_RCCEx_CRS_SyncOkCallback,"ax",%progbits
 3169              		.align	1
 3170              		.weak	HAL_RCCEx_CRS_SyncOkCallback
 3171              		.syntax unified
 3172              		.thumb
 3173              		.thumb_func
 3175              	HAL_RCCEx_CRS_SyncOkCallback:
 3176              	.LFB147:
1724:Drivers/STM32G4xx_HAL_Driver/Src/stm32g4xx_hal_rcc_ex.c **** 
1725:Drivers/STM32G4xx_HAL_Driver/Src/stm32g4xx_hal_rcc_ex.c **** /**
1726:Drivers/STM32G4xx_HAL_Driver/Src/stm32g4xx_hal_rcc_ex.c ****   * @brief Handle the Clock Recovery System interrupt request.
1727:Drivers/STM32G4xx_HAL_Driver/Src/stm32g4xx_hal_rcc_ex.c ****   * @retval None
1728:Drivers/STM32G4xx_HAL_Driver/Src/stm32g4xx_hal_rcc_ex.c ****   */
1729:Drivers/STM32G4xx_HAL_Driver/Src/stm32g4xx_hal_rcc_ex.c **** void HAL_RCCEx_CRS_IRQHandler(void)
1730:Drivers/STM32G4xx_HAL_Driver/Src/stm32g4xx_hal_rcc_ex.c **** {
1731:Drivers/STM32G4xx_HAL_Driver/Src/stm32g4xx_hal_rcc_ex.c ****   uint32_t crserror = RCC_CRS_NONE;
1732:Drivers/STM32G4xx_HAL_Driver/Src/stm32g4xx_hal_rcc_ex.c ****   /* Get current IT flags and IT sources values */
1733:Drivers/STM32G4xx_HAL_Driver/Src/stm32g4xx_hal_rcc_ex.c ****   uint32_t itflags = READ_REG(CRS->ISR);
1734:Drivers/STM32G4xx_HAL_Driver/Src/stm32g4xx_hal_rcc_ex.c ****   uint32_t itsources = READ_REG(CRS->CR);
1735:Drivers/STM32G4xx_HAL_Driver/Src/stm32g4xx_hal_rcc_ex.c **** 
1736:Drivers/STM32G4xx_HAL_Driver/Src/stm32g4xx_hal_rcc_ex.c ****   /* Check CRS SYNCOK flag  */
1737:Drivers/STM32G4xx_HAL_Driver/Src/stm32g4xx_hal_rcc_ex.c ****   if(((itflags & RCC_CRS_FLAG_SYNCOK) != 0U) && ((itsources & RCC_CRS_IT_SYNCOK) != 0U))
1738:Drivers/STM32G4xx_HAL_Driver/Src/stm32g4xx_hal_rcc_ex.c ****   {
1739:Drivers/STM32G4xx_HAL_Driver/Src/stm32g4xx_hal_rcc_ex.c ****     /* Clear CRS SYNC event OK flag */
1740:Drivers/STM32G4xx_HAL_Driver/Src/stm32g4xx_hal_rcc_ex.c ****     WRITE_REG(CRS->ICR, CRS_ICR_SYNCOKC);
1741:Drivers/STM32G4xx_HAL_Driver/Src/stm32g4xx_hal_rcc_ex.c **** 
1742:Drivers/STM32G4xx_HAL_Driver/Src/stm32g4xx_hal_rcc_ex.c ****     /* user callback */
1743:Drivers/STM32G4xx_HAL_Driver/Src/stm32g4xx_hal_rcc_ex.c ****     HAL_RCCEx_CRS_SyncOkCallback();
1744:Drivers/STM32G4xx_HAL_Driver/Src/stm32g4xx_hal_rcc_ex.c ****   }
1745:Drivers/STM32G4xx_HAL_Driver/Src/stm32g4xx_hal_rcc_ex.c ****   /* Check CRS SYNCWARN flag  */
1746:Drivers/STM32G4xx_HAL_Driver/Src/stm32g4xx_hal_rcc_ex.c ****   else if(((itflags & RCC_CRS_FLAG_SYNCWARN) != 0U) && ((itsources & RCC_CRS_IT_SYNCWARN) != 0U))
1747:Drivers/STM32G4xx_HAL_Driver/Src/stm32g4xx_hal_rcc_ex.c ****   {
1748:Drivers/STM32G4xx_HAL_Driver/Src/stm32g4xx_hal_rcc_ex.c ****     /* Clear CRS SYNCWARN flag */
ARM GAS  C:\Users\aniru.000\AppData\Local\Temp\ccGZAzIF.s 			page 98


1749:Drivers/STM32G4xx_HAL_Driver/Src/stm32g4xx_hal_rcc_ex.c ****     WRITE_REG(CRS->ICR, CRS_ICR_SYNCWARNC);
1750:Drivers/STM32G4xx_HAL_Driver/Src/stm32g4xx_hal_rcc_ex.c **** 
1751:Drivers/STM32G4xx_HAL_Driver/Src/stm32g4xx_hal_rcc_ex.c ****     /* user callback */
1752:Drivers/STM32G4xx_HAL_Driver/Src/stm32g4xx_hal_rcc_ex.c ****     HAL_RCCEx_CRS_SyncWarnCallback();
1753:Drivers/STM32G4xx_HAL_Driver/Src/stm32g4xx_hal_rcc_ex.c ****   }
1754:Drivers/STM32G4xx_HAL_Driver/Src/stm32g4xx_hal_rcc_ex.c ****   /* Check CRS Expected SYNC flag  */
1755:Drivers/STM32G4xx_HAL_Driver/Src/stm32g4xx_hal_rcc_ex.c ****   else if(((itflags & RCC_CRS_FLAG_ESYNC) != 0U) && ((itsources & RCC_CRS_IT_ESYNC) != 0U))
1756:Drivers/STM32G4xx_HAL_Driver/Src/stm32g4xx_hal_rcc_ex.c ****   {
1757:Drivers/STM32G4xx_HAL_Driver/Src/stm32g4xx_hal_rcc_ex.c ****     /* frequency error counter reached a zero value */
1758:Drivers/STM32G4xx_HAL_Driver/Src/stm32g4xx_hal_rcc_ex.c ****     WRITE_REG(CRS->ICR, CRS_ICR_ESYNCC);
1759:Drivers/STM32G4xx_HAL_Driver/Src/stm32g4xx_hal_rcc_ex.c **** 
1760:Drivers/STM32G4xx_HAL_Driver/Src/stm32g4xx_hal_rcc_ex.c ****     /* user callback */
1761:Drivers/STM32G4xx_HAL_Driver/Src/stm32g4xx_hal_rcc_ex.c ****     HAL_RCCEx_CRS_ExpectedSyncCallback();
1762:Drivers/STM32G4xx_HAL_Driver/Src/stm32g4xx_hal_rcc_ex.c ****   }
1763:Drivers/STM32G4xx_HAL_Driver/Src/stm32g4xx_hal_rcc_ex.c ****   /* Check CRS Error flags  */
1764:Drivers/STM32G4xx_HAL_Driver/Src/stm32g4xx_hal_rcc_ex.c ****   else
1765:Drivers/STM32G4xx_HAL_Driver/Src/stm32g4xx_hal_rcc_ex.c ****   {
1766:Drivers/STM32G4xx_HAL_Driver/Src/stm32g4xx_hal_rcc_ex.c ****     if(((itflags & RCC_CRS_FLAG_ERR) != 0U) && ((itsources & RCC_CRS_IT_ERR) != 0U))
1767:Drivers/STM32G4xx_HAL_Driver/Src/stm32g4xx_hal_rcc_ex.c ****     {
1768:Drivers/STM32G4xx_HAL_Driver/Src/stm32g4xx_hal_rcc_ex.c ****       if((itflags & RCC_CRS_FLAG_SYNCERR) != 0U)
1769:Drivers/STM32G4xx_HAL_Driver/Src/stm32g4xx_hal_rcc_ex.c ****       {
1770:Drivers/STM32G4xx_HAL_Driver/Src/stm32g4xx_hal_rcc_ex.c ****         crserror |= RCC_CRS_SYNCERR;
1771:Drivers/STM32G4xx_HAL_Driver/Src/stm32g4xx_hal_rcc_ex.c ****       }
1772:Drivers/STM32G4xx_HAL_Driver/Src/stm32g4xx_hal_rcc_ex.c ****       if((itflags & RCC_CRS_FLAG_SYNCMISS) != 0U)
1773:Drivers/STM32G4xx_HAL_Driver/Src/stm32g4xx_hal_rcc_ex.c ****       {
1774:Drivers/STM32G4xx_HAL_Driver/Src/stm32g4xx_hal_rcc_ex.c ****         crserror |= RCC_CRS_SYNCMISS;
1775:Drivers/STM32G4xx_HAL_Driver/Src/stm32g4xx_hal_rcc_ex.c ****       }
1776:Drivers/STM32G4xx_HAL_Driver/Src/stm32g4xx_hal_rcc_ex.c ****       if((itflags & RCC_CRS_FLAG_TRIMOVF) != 0U)
1777:Drivers/STM32G4xx_HAL_Driver/Src/stm32g4xx_hal_rcc_ex.c ****       {
1778:Drivers/STM32G4xx_HAL_Driver/Src/stm32g4xx_hal_rcc_ex.c ****         crserror |= RCC_CRS_TRIMOVF;
1779:Drivers/STM32G4xx_HAL_Driver/Src/stm32g4xx_hal_rcc_ex.c ****       }
1780:Drivers/STM32G4xx_HAL_Driver/Src/stm32g4xx_hal_rcc_ex.c **** 
1781:Drivers/STM32G4xx_HAL_Driver/Src/stm32g4xx_hal_rcc_ex.c ****       /* Clear CRS Error flags */
1782:Drivers/STM32G4xx_HAL_Driver/Src/stm32g4xx_hal_rcc_ex.c ****       WRITE_REG(CRS->ICR, CRS_ICR_ERRC);
1783:Drivers/STM32G4xx_HAL_Driver/Src/stm32g4xx_hal_rcc_ex.c **** 
1784:Drivers/STM32G4xx_HAL_Driver/Src/stm32g4xx_hal_rcc_ex.c ****       /* user error callback */
1785:Drivers/STM32G4xx_HAL_Driver/Src/stm32g4xx_hal_rcc_ex.c ****       HAL_RCCEx_CRS_ErrorCallback(crserror);
1786:Drivers/STM32G4xx_HAL_Driver/Src/stm32g4xx_hal_rcc_ex.c ****     }
1787:Drivers/STM32G4xx_HAL_Driver/Src/stm32g4xx_hal_rcc_ex.c ****   }
1788:Drivers/STM32G4xx_HAL_Driver/Src/stm32g4xx_hal_rcc_ex.c **** }
1789:Drivers/STM32G4xx_HAL_Driver/Src/stm32g4xx_hal_rcc_ex.c **** 
1790:Drivers/STM32G4xx_HAL_Driver/Src/stm32g4xx_hal_rcc_ex.c **** /**
1791:Drivers/STM32G4xx_HAL_Driver/Src/stm32g4xx_hal_rcc_ex.c ****   * @brief  RCCEx Clock Recovery System SYNCOK interrupt callback.
1792:Drivers/STM32G4xx_HAL_Driver/Src/stm32g4xx_hal_rcc_ex.c ****   * @retval none
1793:Drivers/STM32G4xx_HAL_Driver/Src/stm32g4xx_hal_rcc_ex.c ****   */
1794:Drivers/STM32G4xx_HAL_Driver/Src/stm32g4xx_hal_rcc_ex.c **** __weak void HAL_RCCEx_CRS_SyncOkCallback(void)
1795:Drivers/STM32G4xx_HAL_Driver/Src/stm32g4xx_hal_rcc_ex.c **** {
 3177              		.loc 1 1795 1 is_stmt 1 view -0
 3178              		.cfi_startproc
 3179              		@ args = 0, pretend = 0, frame = 0
 3180              		@ frame_needed = 0, uses_anonymous_args = 0
 3181              		@ link register save eliminated.
1796:Drivers/STM32G4xx_HAL_Driver/Src/stm32g4xx_hal_rcc_ex.c ****   /* NOTE : This function should not be modified, when the callback is needed,
1797:Drivers/STM32G4xx_HAL_Driver/Src/stm32g4xx_hal_rcc_ex.c ****             the @ref HAL_RCCEx_CRS_SyncOkCallback should be implemented in the user file
1798:Drivers/STM32G4xx_HAL_Driver/Src/stm32g4xx_hal_rcc_ex.c ****    */
1799:Drivers/STM32G4xx_HAL_Driver/Src/stm32g4xx_hal_rcc_ex.c **** }
 3182              		.loc 1 1799 1 view .LVU1061
ARM GAS  C:\Users\aniru.000\AppData\Local\Temp\ccGZAzIF.s 			page 99


 3183 0000 7047     		bx	lr
 3184              		.cfi_endproc
 3185              	.LFE147:
 3187              		.section	.text.HAL_RCCEx_CRS_SyncWarnCallback,"ax",%progbits
 3188              		.align	1
 3189              		.weak	HAL_RCCEx_CRS_SyncWarnCallback
 3190              		.syntax unified
 3191              		.thumb
 3192              		.thumb_func
 3194              	HAL_RCCEx_CRS_SyncWarnCallback:
 3195              	.LFB148:
1800:Drivers/STM32G4xx_HAL_Driver/Src/stm32g4xx_hal_rcc_ex.c **** 
1801:Drivers/STM32G4xx_HAL_Driver/Src/stm32g4xx_hal_rcc_ex.c **** /**
1802:Drivers/STM32G4xx_HAL_Driver/Src/stm32g4xx_hal_rcc_ex.c ****   * @brief  RCCEx Clock Recovery System SYNCWARN interrupt callback.
1803:Drivers/STM32G4xx_HAL_Driver/Src/stm32g4xx_hal_rcc_ex.c ****   * @retval none
1804:Drivers/STM32G4xx_HAL_Driver/Src/stm32g4xx_hal_rcc_ex.c ****   */
1805:Drivers/STM32G4xx_HAL_Driver/Src/stm32g4xx_hal_rcc_ex.c **** __weak void HAL_RCCEx_CRS_SyncWarnCallback(void)
1806:Drivers/STM32G4xx_HAL_Driver/Src/stm32g4xx_hal_rcc_ex.c **** {
 3196              		.loc 1 1806 1 view -0
 3197              		.cfi_startproc
 3198              		@ args = 0, pretend = 0, frame = 0
 3199              		@ frame_needed = 0, uses_anonymous_args = 0
 3200              		@ link register save eliminated.
1807:Drivers/STM32G4xx_HAL_Driver/Src/stm32g4xx_hal_rcc_ex.c ****   /* NOTE : This function should not be modified, when the callback is needed,
1808:Drivers/STM32G4xx_HAL_Driver/Src/stm32g4xx_hal_rcc_ex.c ****             the @ref HAL_RCCEx_CRS_SyncWarnCallback should be implemented in the user file
1809:Drivers/STM32G4xx_HAL_Driver/Src/stm32g4xx_hal_rcc_ex.c ****    */
1810:Drivers/STM32G4xx_HAL_Driver/Src/stm32g4xx_hal_rcc_ex.c **** }
 3201              		.loc 1 1810 1 view .LVU1063
 3202 0000 7047     		bx	lr
 3203              		.cfi_endproc
 3204              	.LFE148:
 3206              		.section	.text.HAL_RCCEx_CRS_ExpectedSyncCallback,"ax",%progbits
 3207              		.align	1
 3208              		.weak	HAL_RCCEx_CRS_ExpectedSyncCallback
 3209              		.syntax unified
 3210              		.thumb
 3211              		.thumb_func
 3213              	HAL_RCCEx_CRS_ExpectedSyncCallback:
 3214              	.LFB149:
1811:Drivers/STM32G4xx_HAL_Driver/Src/stm32g4xx_hal_rcc_ex.c **** 
1812:Drivers/STM32G4xx_HAL_Driver/Src/stm32g4xx_hal_rcc_ex.c **** /**
1813:Drivers/STM32G4xx_HAL_Driver/Src/stm32g4xx_hal_rcc_ex.c ****   * @brief  RCCEx Clock Recovery System Expected SYNC interrupt callback.
1814:Drivers/STM32G4xx_HAL_Driver/Src/stm32g4xx_hal_rcc_ex.c ****   * @retval none
1815:Drivers/STM32G4xx_HAL_Driver/Src/stm32g4xx_hal_rcc_ex.c ****   */
1816:Drivers/STM32G4xx_HAL_Driver/Src/stm32g4xx_hal_rcc_ex.c **** __weak void HAL_RCCEx_CRS_ExpectedSyncCallback(void)
1817:Drivers/STM32G4xx_HAL_Driver/Src/stm32g4xx_hal_rcc_ex.c **** {
 3215              		.loc 1 1817 1 view -0
 3216              		.cfi_startproc
 3217              		@ args = 0, pretend = 0, frame = 0
 3218              		@ frame_needed = 0, uses_anonymous_args = 0
 3219              		@ link register save eliminated.
1818:Drivers/STM32G4xx_HAL_Driver/Src/stm32g4xx_hal_rcc_ex.c ****   /* NOTE : This function should not be modified, when the callback is needed,
1819:Drivers/STM32G4xx_HAL_Driver/Src/stm32g4xx_hal_rcc_ex.c ****             the @ref HAL_RCCEx_CRS_ExpectedSyncCallback should be implemented in the user file
1820:Drivers/STM32G4xx_HAL_Driver/Src/stm32g4xx_hal_rcc_ex.c ****    */
1821:Drivers/STM32G4xx_HAL_Driver/Src/stm32g4xx_hal_rcc_ex.c **** }
 3220              		.loc 1 1821 1 view .LVU1065
 3221 0000 7047     		bx	lr
ARM GAS  C:\Users\aniru.000\AppData\Local\Temp\ccGZAzIF.s 			page 100


 3222              		.cfi_endproc
 3223              	.LFE149:
 3225              		.section	.text.HAL_RCCEx_CRS_ErrorCallback,"ax",%progbits
 3226              		.align	1
 3227              		.weak	HAL_RCCEx_CRS_ErrorCallback
 3228              		.syntax unified
 3229              		.thumb
 3230              		.thumb_func
 3232              	HAL_RCCEx_CRS_ErrorCallback:
 3233              	.LVL328:
 3234              	.LFB150:
1822:Drivers/STM32G4xx_HAL_Driver/Src/stm32g4xx_hal_rcc_ex.c **** 
1823:Drivers/STM32G4xx_HAL_Driver/Src/stm32g4xx_hal_rcc_ex.c **** /**
1824:Drivers/STM32G4xx_HAL_Driver/Src/stm32g4xx_hal_rcc_ex.c ****   * @brief  RCCEx Clock Recovery System Error interrupt callback.
1825:Drivers/STM32G4xx_HAL_Driver/Src/stm32g4xx_hal_rcc_ex.c ****   * @param  Error Combination of Error status.
1826:Drivers/STM32G4xx_HAL_Driver/Src/stm32g4xx_hal_rcc_ex.c ****   *         This parameter can be a combination of the following values:
1827:Drivers/STM32G4xx_HAL_Driver/Src/stm32g4xx_hal_rcc_ex.c ****   *           @arg @ref RCC_CRS_SYNCERR
1828:Drivers/STM32G4xx_HAL_Driver/Src/stm32g4xx_hal_rcc_ex.c ****   *           @arg @ref RCC_CRS_SYNCMISS
1829:Drivers/STM32G4xx_HAL_Driver/Src/stm32g4xx_hal_rcc_ex.c ****   *           @arg @ref RCC_CRS_TRIMOVF
1830:Drivers/STM32G4xx_HAL_Driver/Src/stm32g4xx_hal_rcc_ex.c ****   * @retval none
1831:Drivers/STM32G4xx_HAL_Driver/Src/stm32g4xx_hal_rcc_ex.c ****   */
1832:Drivers/STM32G4xx_HAL_Driver/Src/stm32g4xx_hal_rcc_ex.c **** __weak void HAL_RCCEx_CRS_ErrorCallback(uint32_t Error)
1833:Drivers/STM32G4xx_HAL_Driver/Src/stm32g4xx_hal_rcc_ex.c **** {
 3235              		.loc 1 1833 1 view -0
 3236              		.cfi_startproc
 3237              		@ args = 0, pretend = 0, frame = 0
 3238              		@ frame_needed = 0, uses_anonymous_args = 0
 3239              		@ link register save eliminated.
1834:Drivers/STM32G4xx_HAL_Driver/Src/stm32g4xx_hal_rcc_ex.c ****   /* Prevent unused argument(s) compilation warning */
1835:Drivers/STM32G4xx_HAL_Driver/Src/stm32g4xx_hal_rcc_ex.c ****   UNUSED(Error);
 3240              		.loc 1 1835 3 view .LVU1067
1836:Drivers/STM32G4xx_HAL_Driver/Src/stm32g4xx_hal_rcc_ex.c **** 
1837:Drivers/STM32G4xx_HAL_Driver/Src/stm32g4xx_hal_rcc_ex.c ****   /* NOTE : This function should not be modified, when the callback is needed,
1838:Drivers/STM32G4xx_HAL_Driver/Src/stm32g4xx_hal_rcc_ex.c ****             the @ref HAL_RCCEx_CRS_ErrorCallback should be implemented in the user file
1839:Drivers/STM32G4xx_HAL_Driver/Src/stm32g4xx_hal_rcc_ex.c ****    */
1840:Drivers/STM32G4xx_HAL_Driver/Src/stm32g4xx_hal_rcc_ex.c **** }
 3241              		.loc 1 1840 1 is_stmt 0 view .LVU1068
 3242 0000 7047     		bx	lr
 3243              		.cfi_endproc
 3244              	.LFE150:
 3246              		.section	.text.HAL_RCCEx_CRS_IRQHandler,"ax",%progbits
 3247              		.align	1
 3248              		.global	HAL_RCCEx_CRS_IRQHandler
 3249              		.syntax unified
 3250              		.thumb
 3251              		.thumb_func
 3253              	HAL_RCCEx_CRS_IRQHandler:
 3254              	.LFB146:
1730:Drivers/STM32G4xx_HAL_Driver/Src/stm32g4xx_hal_rcc_ex.c ****   uint32_t crserror = RCC_CRS_NONE;
 3255              		.loc 1 1730 1 is_stmt 1 view -0
 3256              		.cfi_startproc
 3257              		@ args = 0, pretend = 0, frame = 0
 3258              		@ frame_needed = 0, uses_anonymous_args = 0
 3259 0000 08B5     		push	{r3, lr}
 3260              		.cfi_def_cfa_offset 8
 3261              		.cfi_offset 3, -8
 3262              		.cfi_offset 14, -4
ARM GAS  C:\Users\aniru.000\AppData\Local\Temp\ccGZAzIF.s 			page 101


1731:Drivers/STM32G4xx_HAL_Driver/Src/stm32g4xx_hal_rcc_ex.c ****   /* Get current IT flags and IT sources values */
 3263              		.loc 1 1731 3 view .LVU1070
 3264              	.LVL329:
1733:Drivers/STM32G4xx_HAL_Driver/Src/stm32g4xx_hal_rcc_ex.c ****   uint32_t itsources = READ_REG(CRS->CR);
 3265              		.loc 1 1733 3 view .LVU1071
1733:Drivers/STM32G4xx_HAL_Driver/Src/stm32g4xx_hal_rcc_ex.c ****   uint32_t itsources = READ_REG(CRS->CR);
 3266              		.loc 1 1733 12 is_stmt 0 view .LVU1072
 3267 0002 204A     		ldr	r2, .L292
 3268 0004 9368     		ldr	r3, [r2, #8]
 3269              	.LVL330:
1734:Drivers/STM32G4xx_HAL_Driver/Src/stm32g4xx_hal_rcc_ex.c **** 
 3270              		.loc 1 1734 3 is_stmt 1 view .LVU1073
1734:Drivers/STM32G4xx_HAL_Driver/Src/stm32g4xx_hal_rcc_ex.c **** 
 3271              		.loc 1 1734 12 is_stmt 0 view .LVU1074
 3272 0006 1268     		ldr	r2, [r2]
 3273              	.LVL331:
1737:Drivers/STM32G4xx_HAL_Driver/Src/stm32g4xx_hal_rcc_ex.c ****   {
 3274              		.loc 1 1737 3 is_stmt 1 view .LVU1075
1737:Drivers/STM32G4xx_HAL_Driver/Src/stm32g4xx_hal_rcc_ex.c ****   {
 3275              		.loc 1 1737 5 is_stmt 0 view .LVU1076
 3276 0008 13F0010F 		tst	r3, #1
 3277 000c 02D0     		beq	.L280
1737:Drivers/STM32G4xx_HAL_Driver/Src/stm32g4xx_hal_rcc_ex.c ****   {
 3278              		.loc 1 1737 46 discriminator 1 view .LVU1077
 3279 000e 12F0010F 		tst	r2, #1
 3280 0012 25D1     		bne	.L289
 3281              	.L280:
1746:Drivers/STM32G4xx_HAL_Driver/Src/stm32g4xx_hal_rcc_ex.c ****   {
 3282              		.loc 1 1746 8 is_stmt 1 view .LVU1078
1746:Drivers/STM32G4xx_HAL_Driver/Src/stm32g4xx_hal_rcc_ex.c ****   {
 3283              		.loc 1 1746 10 is_stmt 0 view .LVU1079
 3284 0014 13F0020F 		tst	r3, #2
 3285 0018 02D0     		beq	.L282
1746:Drivers/STM32G4xx_HAL_Driver/Src/stm32g4xx_hal_rcc_ex.c ****   {
 3286              		.loc 1 1746 53 discriminator 1 view .LVU1080
 3287 001a 12F0020F 		tst	r2, #2
 3288 001e 25D1     		bne	.L290
 3289              	.L282:
1755:Drivers/STM32G4xx_HAL_Driver/Src/stm32g4xx_hal_rcc_ex.c ****   {
 3290              		.loc 1 1755 8 is_stmt 1 view .LVU1081
1755:Drivers/STM32G4xx_HAL_Driver/Src/stm32g4xx_hal_rcc_ex.c ****   {
 3291              		.loc 1 1755 10 is_stmt 0 view .LVU1082
 3292 0020 13F0080F 		tst	r3, #8
 3293 0024 02D0     		beq	.L283
1755:Drivers/STM32G4xx_HAL_Driver/Src/stm32g4xx_hal_rcc_ex.c ****   {
 3294              		.loc 1 1755 50 discriminator 1 view .LVU1083
 3295 0026 12F0080F 		tst	r2, #8
 3296 002a 25D1     		bne	.L291
 3297              	.L283:
1766:Drivers/STM32G4xx_HAL_Driver/Src/stm32g4xx_hal_rcc_ex.c ****     {
 3298              		.loc 1 1766 5 is_stmt 1 view .LVU1084
1766:Drivers/STM32G4xx_HAL_Driver/Src/stm32g4xx_hal_rcc_ex.c ****     {
 3299              		.loc 1 1766 7 is_stmt 0 view .LVU1085
 3300 002c 13F0040F 		tst	r3, #4
 3301 0030 1BD0     		beq	.L279
1766:Drivers/STM32G4xx_HAL_Driver/Src/stm32g4xx_hal_rcc_ex.c ****     {
 3302              		.loc 1 1766 45 discriminator 1 view .LVU1086
ARM GAS  C:\Users\aniru.000\AppData\Local\Temp\ccGZAzIF.s 			page 102


 3303 0032 12F0040F 		tst	r2, #4
 3304 0036 18D0     		beq	.L279
1768:Drivers/STM32G4xx_HAL_Driver/Src/stm32g4xx_hal_rcc_ex.c ****       {
 3305              		.loc 1 1768 7 is_stmt 1 view .LVU1087
1768:Drivers/STM32G4xx_HAL_Driver/Src/stm32g4xx_hal_rcc_ex.c ****       {
 3306              		.loc 1 1768 9 is_stmt 0 view .LVU1088
 3307 0038 13F48070 		ands	r0, r3, #256
 3308 003c 00D0     		beq	.L284
1770:Drivers/STM32G4xx_HAL_Driver/Src/stm32g4xx_hal_rcc_ex.c ****       }
 3309              		.loc 1 1770 18 view .LVU1089
 3310 003e 0820     		movs	r0, #8
 3311              	.L284:
 3312              	.LVL332:
1772:Drivers/STM32G4xx_HAL_Driver/Src/stm32g4xx_hal_rcc_ex.c ****       {
 3313              		.loc 1 1772 7 is_stmt 1 view .LVU1090
1772:Drivers/STM32G4xx_HAL_Driver/Src/stm32g4xx_hal_rcc_ex.c ****       {
 3314              		.loc 1 1772 9 is_stmt 0 view .LVU1091
 3315 0040 13F4007F 		tst	r3, #512
 3316 0044 01D0     		beq	.L285
1774:Drivers/STM32G4xx_HAL_Driver/Src/stm32g4xx_hal_rcc_ex.c ****       }
 3317              		.loc 1 1774 9 is_stmt 1 view .LVU1092
1774:Drivers/STM32G4xx_HAL_Driver/Src/stm32g4xx_hal_rcc_ex.c ****       }
 3318              		.loc 1 1774 18 is_stmt 0 view .LVU1093
 3319 0046 40F01000 		orr	r0, r0, #16
 3320              	.LVL333:
 3321              	.L285:
1776:Drivers/STM32G4xx_HAL_Driver/Src/stm32g4xx_hal_rcc_ex.c ****       {
 3322              		.loc 1 1776 7 is_stmt 1 view .LVU1094
1776:Drivers/STM32G4xx_HAL_Driver/Src/stm32g4xx_hal_rcc_ex.c ****       {
 3323              		.loc 1 1776 9 is_stmt 0 view .LVU1095
 3324 004a 13F4806F 		tst	r3, #1024
 3325 004e 01D0     		beq	.L286
1778:Drivers/STM32G4xx_HAL_Driver/Src/stm32g4xx_hal_rcc_ex.c ****       }
 3326              		.loc 1 1778 9 is_stmt 1 view .LVU1096
1778:Drivers/STM32G4xx_HAL_Driver/Src/stm32g4xx_hal_rcc_ex.c ****       }
 3327              		.loc 1 1778 18 is_stmt 0 view .LVU1097
 3328 0050 40F02000 		orr	r0, r0, #32
 3329              	.LVL334:
 3330              	.L286:
1782:Drivers/STM32G4xx_HAL_Driver/Src/stm32g4xx_hal_rcc_ex.c **** 
 3331              		.loc 1 1782 7 is_stmt 1 view .LVU1098
 3332 0054 0B4B     		ldr	r3, .L292
 3333              	.LVL335:
1782:Drivers/STM32G4xx_HAL_Driver/Src/stm32g4xx_hal_rcc_ex.c **** 
 3334              		.loc 1 1782 7 is_stmt 0 view .LVU1099
 3335 0056 0422     		movs	r2, #4
 3336              	.LVL336:
1782:Drivers/STM32G4xx_HAL_Driver/Src/stm32g4xx_hal_rcc_ex.c **** 
 3337              		.loc 1 1782 7 view .LVU1100
 3338 0058 DA60     		str	r2, [r3, #12]
1785:Drivers/STM32G4xx_HAL_Driver/Src/stm32g4xx_hal_rcc_ex.c ****     }
 3339              		.loc 1 1785 7 is_stmt 1 view .LVU1101
 3340 005a FFF7FEFF 		bl	HAL_RCCEx_CRS_ErrorCallback
 3341              	.LVL337:
1788:Drivers/STM32G4xx_HAL_Driver/Src/stm32g4xx_hal_rcc_ex.c **** 
 3342              		.loc 1 1788 1 is_stmt 0 view .LVU1102
 3343 005e 04E0     		b	.L279
ARM GAS  C:\Users\aniru.000\AppData\Local\Temp\ccGZAzIF.s 			page 103


 3344              	.LVL338:
 3345              	.L289:
1740:Drivers/STM32G4xx_HAL_Driver/Src/stm32g4xx_hal_rcc_ex.c **** 
 3346              		.loc 1 1740 5 is_stmt 1 view .LVU1103
 3347 0060 084B     		ldr	r3, .L292
 3348              	.LVL339:
1740:Drivers/STM32G4xx_HAL_Driver/Src/stm32g4xx_hal_rcc_ex.c **** 
 3349              		.loc 1 1740 5 is_stmt 0 view .LVU1104
 3350 0062 0122     		movs	r2, #1
 3351              	.LVL340:
1740:Drivers/STM32G4xx_HAL_Driver/Src/stm32g4xx_hal_rcc_ex.c **** 
 3352              		.loc 1 1740 5 view .LVU1105
 3353 0064 DA60     		str	r2, [r3, #12]
1743:Drivers/STM32G4xx_HAL_Driver/Src/stm32g4xx_hal_rcc_ex.c ****   }
 3354              		.loc 1 1743 5 is_stmt 1 view .LVU1106
 3355 0066 FFF7FEFF 		bl	HAL_RCCEx_CRS_SyncOkCallback
 3356              	.LVL341:
 3357              	.L279:
1788:Drivers/STM32G4xx_HAL_Driver/Src/stm32g4xx_hal_rcc_ex.c **** 
 3358              		.loc 1 1788 1 is_stmt 0 view .LVU1107
 3359 006a 08BD     		pop	{r3, pc}
 3360              	.LVL342:
 3361              	.L290:
1749:Drivers/STM32G4xx_HAL_Driver/Src/stm32g4xx_hal_rcc_ex.c **** 
 3362              		.loc 1 1749 5 is_stmt 1 view .LVU1108
 3363 006c 054B     		ldr	r3, .L292
 3364              	.LVL343:
1749:Drivers/STM32G4xx_HAL_Driver/Src/stm32g4xx_hal_rcc_ex.c **** 
 3365              		.loc 1 1749 5 is_stmt 0 view .LVU1109
 3366 006e 0222     		movs	r2, #2
 3367              	.LVL344:
1749:Drivers/STM32G4xx_HAL_Driver/Src/stm32g4xx_hal_rcc_ex.c **** 
 3368              		.loc 1 1749 5 view .LVU1110
 3369 0070 DA60     		str	r2, [r3, #12]
1752:Drivers/STM32G4xx_HAL_Driver/Src/stm32g4xx_hal_rcc_ex.c ****   }
 3370              		.loc 1 1752 5 is_stmt 1 view .LVU1111
 3371 0072 FFF7FEFF 		bl	HAL_RCCEx_CRS_SyncWarnCallback
 3372              	.LVL345:
 3373 0076 F8E7     		b	.L279
 3374              	.LVL346:
 3375              	.L291:
1758:Drivers/STM32G4xx_HAL_Driver/Src/stm32g4xx_hal_rcc_ex.c **** 
 3376              		.loc 1 1758 5 view .LVU1112
 3377 0078 024B     		ldr	r3, .L292
 3378              	.LVL347:
1758:Drivers/STM32G4xx_HAL_Driver/Src/stm32g4xx_hal_rcc_ex.c **** 
 3379              		.loc 1 1758 5 is_stmt 0 view .LVU1113
 3380 007a 0822     		movs	r2, #8
 3381              	.LVL348:
1758:Drivers/STM32G4xx_HAL_Driver/Src/stm32g4xx_hal_rcc_ex.c **** 
 3382              		.loc 1 1758 5 view .LVU1114
 3383 007c DA60     		str	r2, [r3, #12]
1761:Drivers/STM32G4xx_HAL_Driver/Src/stm32g4xx_hal_rcc_ex.c ****   }
 3384              		.loc 1 1761 5 is_stmt 1 view .LVU1115
 3385 007e FFF7FEFF 		bl	HAL_RCCEx_CRS_ExpectedSyncCallback
 3386              	.LVL349:
 3387 0082 F2E7     		b	.L279
ARM GAS  C:\Users\aniru.000\AppData\Local\Temp\ccGZAzIF.s 			page 104


 3388              	.L293:
 3389              		.align	2
 3390              	.L292:
 3391 0084 00200040 		.word	1073750016
 3392              		.cfi_endproc
 3393              	.LFE146:
 3395              		.text
 3396              	.Letext0:
 3397              		.file 2 "C:/Users/aniru.000/AppData/Roaming/Code/User/globalStorage/bmd.stm32-for-vscode/@xpack-de
 3398              		.file 3 "C:/Users/aniru.000/AppData/Roaming/Code/User/globalStorage/bmd.stm32-for-vscode/@xpack-de
 3399              		.file 4 "Drivers/CMSIS/Device/ST/STM32G4xx/Include/stm32g491xx.h"
 3400              		.file 5 "Drivers/CMSIS/Device/ST/STM32G4xx/Include/stm32g4xx.h"
 3401              		.file 6 "Drivers/STM32G4xx_HAL_Driver/Inc/stm32g4xx_hal_def.h"
 3402              		.file 7 "Drivers/STM32G4xx_HAL_Driver/Inc/stm32g4xx_hal_rcc_ex.h"
 3403              		.file 8 "Drivers/STM32G4xx_HAL_Driver/Inc/stm32g4xx_hal_gpio.h"
 3404              		.file 9 "Drivers/STM32G4xx_HAL_Driver/Inc/stm32g4xx_hal_pwr.h"
 3405              		.file 10 "Drivers/STM32G4xx_HAL_Driver/Inc/stm32g4xx_hal_rcc.h"
 3406              		.file 11 "Drivers/STM32G4xx_HAL_Driver/Inc/stm32g4xx_hal.h"
ARM GAS  C:\Users\aniru.000\AppData\Local\Temp\ccGZAzIF.s 			page 105


DEFINED SYMBOLS
                            *ABS*:00000000 stm32g4xx_hal_rcc_ex.c
C:\Users\aniru.000\AppData\Local\Temp\ccGZAzIF.s:21     .text.HAL_RCCEx_PeriphCLKConfig:00000000 $t
C:\Users\aniru.000\AppData\Local\Temp\ccGZAzIF.s:27     .text.HAL_RCCEx_PeriphCLKConfig:00000000 HAL_RCCEx_PeriphCLKConfig
C:\Users\aniru.000\AppData\Local\Temp\ccGZAzIF.s:243    .text.HAL_RCCEx_PeriphCLKConfig:000000e8 $d
C:\Users\aniru.000\AppData\Local\Temp\ccGZAzIF.s:250    .text.HAL_RCCEx_PeriphCLKConfig:000000f0 $t
C:\Users\aniru.000\AppData\Local\Temp\ccGZAzIF.s:632    .text.HAL_RCCEx_PeriphCLKConfig:0000035c $d
C:\Users\aniru.000\AppData\Local\Temp\ccGZAzIF.s:637    .text.HAL_RCCEx_GetPeriphCLKConfig:00000000 $t
C:\Users\aniru.000\AppData\Local\Temp\ccGZAzIF.s:643    .text.HAL_RCCEx_GetPeriphCLKConfig:00000000 HAL_RCCEx_GetPeriphCLKConfig
C:\Users\aniru.000\AppData\Local\Temp\ccGZAzIF.s:775    .text.HAL_RCCEx_GetPeriphCLKConfig:000000c8 $d
C:\Users\aniru.000\AppData\Local\Temp\ccGZAzIF.s:781    .text.HAL_RCCEx_GetPeriphCLKFreq:00000000 $t
C:\Users\aniru.000\AppData\Local\Temp\ccGZAzIF.s:787    .text.HAL_RCCEx_GetPeriphCLKFreq:00000000 HAL_RCCEx_GetPeriphCLKFreq
C:\Users\aniru.000\AppData\Local\Temp\ccGZAzIF.s:1318   .text.HAL_RCCEx_GetPeriphCLKFreq:000002c4 $d
C:\Users\aniru.000\AppData\Local\Temp\ccGZAzIF.s:1325   .text.HAL_RCCEx_GetPeriphCLKFreq:000002d0 $t
C:\Users\aniru.000\AppData\Local\Temp\ccGZAzIF.s:1967   .text.HAL_RCCEx_GetPeriphCLKFreq:000005b0 $d
C:\Users\aniru.000\AppData\Local\Temp\ccGZAzIF.s:1972   .text.HAL_RCCEx_GetPeriphCLKFreq:000005b4 $t
C:\Users\aniru.000\AppData\Local\Temp\ccGZAzIF.s:2345   .text.HAL_RCCEx_GetPeriphCLKFreq:0000070c $d
C:\Users\aniru.000\AppData\Local\Temp\ccGZAzIF.s:2355   .text.HAL_RCCEx_EnableLSECSS:00000000 $t
C:\Users\aniru.000\AppData\Local\Temp\ccGZAzIF.s:2361   .text.HAL_RCCEx_EnableLSECSS:00000000 HAL_RCCEx_EnableLSECSS
C:\Users\aniru.000\AppData\Local\Temp\ccGZAzIF.s:2378   .text.HAL_RCCEx_EnableLSECSS:00000010 $d
C:\Users\aniru.000\AppData\Local\Temp\ccGZAzIF.s:2383   .text.HAL_RCCEx_DisableLSECSS:00000000 $t
C:\Users\aniru.000\AppData\Local\Temp\ccGZAzIF.s:2389   .text.HAL_RCCEx_DisableLSECSS:00000000 HAL_RCCEx_DisableLSECSS
C:\Users\aniru.000\AppData\Local\Temp\ccGZAzIF.s:2410   .text.HAL_RCCEx_DisableLSECSS:00000018 $d
C:\Users\aniru.000\AppData\Local\Temp\ccGZAzIF.s:2415   .text.HAL_RCCEx_EnableLSECSS_IT:00000000 $t
C:\Users\aniru.000\AppData\Local\Temp\ccGZAzIF.s:2421   .text.HAL_RCCEx_EnableLSECSS_IT:00000000 HAL_RCCEx_EnableLSECSS_IT
C:\Users\aniru.000\AppData\Local\Temp\ccGZAzIF.s:2451   .text.HAL_RCCEx_EnableLSECSS_IT:0000002c $d
C:\Users\aniru.000\AppData\Local\Temp\ccGZAzIF.s:2456   .text.HAL_RCCEx_LSECSS_Callback:00000000 $t
C:\Users\aniru.000\AppData\Local\Temp\ccGZAzIF.s:2462   .text.HAL_RCCEx_LSECSS_Callback:00000000 HAL_RCCEx_LSECSS_Callback
C:\Users\aniru.000\AppData\Local\Temp\ccGZAzIF.s:2475   .text.HAL_RCCEx_LSECSS_IRQHandler:00000000 $t
C:\Users\aniru.000\AppData\Local\Temp\ccGZAzIF.s:2481   .text.HAL_RCCEx_LSECSS_IRQHandler:00000000 HAL_RCCEx_LSECSS_IRQHandler
C:\Users\aniru.000\AppData\Local\Temp\ccGZAzIF.s:2514   .text.HAL_RCCEx_LSECSS_IRQHandler:0000001c $d
C:\Users\aniru.000\AppData\Local\Temp\ccGZAzIF.s:2519   .text.HAL_RCCEx_EnableLSCO:00000000 $t
C:\Users\aniru.000\AppData\Local\Temp\ccGZAzIF.s:2525   .text.HAL_RCCEx_EnableLSCO:00000000 HAL_RCCEx_EnableLSCO
C:\Users\aniru.000\AppData\Local\Temp\ccGZAzIF.s:2682   .text.HAL_RCCEx_EnableLSCO:000000a0 $d
C:\Users\aniru.000\AppData\Local\Temp\ccGZAzIF.s:2688   .text.HAL_RCCEx_DisableLSCO:00000000 $t
C:\Users\aniru.000\AppData\Local\Temp\ccGZAzIF.s:2694   .text.HAL_RCCEx_DisableLSCO:00000000 HAL_RCCEx_DisableLSCO
C:\Users\aniru.000\AppData\Local\Temp\ccGZAzIF.s:2804   .text.HAL_RCCEx_DisableLSCO:00000068 $d
C:\Users\aniru.000\AppData\Local\Temp\ccGZAzIF.s:2810   .text.HAL_RCCEx_CRSConfig:00000000 $t
C:\Users\aniru.000\AppData\Local\Temp\ccGZAzIF.s:2816   .text.HAL_RCCEx_CRSConfig:00000000 HAL_RCCEx_CRSConfig
C:\Users\aniru.000\AppData\Local\Temp\ccGZAzIF.s:2885   .text.HAL_RCCEx_CRSConfig:00000044 $d
C:\Users\aniru.000\AppData\Local\Temp\ccGZAzIF.s:2891   .text.HAL_RCCEx_CRSSoftwareSynchronizationGenerate:00000000 $t
C:\Users\aniru.000\AppData\Local\Temp\ccGZAzIF.s:2897   .text.HAL_RCCEx_CRSSoftwareSynchronizationGenerate:00000000 HAL_RCCEx_CRSSoftwareSynchronizationGenerate
C:\Users\aniru.000\AppData\Local\Temp\ccGZAzIF.s:2914   .text.HAL_RCCEx_CRSSoftwareSynchronizationGenerate:0000000c $d
C:\Users\aniru.000\AppData\Local\Temp\ccGZAzIF.s:2919   .text.HAL_RCCEx_CRSGetSynchronizationInfo:00000000 $t
C:\Users\aniru.000\AppData\Local\Temp\ccGZAzIF.s:2925   .text.HAL_RCCEx_CRSGetSynchronizationInfo:00000000 HAL_RCCEx_CRSGetSynchronizationInfo
C:\Users\aniru.000\AppData\Local\Temp\ccGZAzIF.s:2966   .text.HAL_RCCEx_CRSGetSynchronizationInfo:00000020 $d
C:\Users\aniru.000\AppData\Local\Temp\ccGZAzIF.s:2971   .text.HAL_RCCEx_CRSWaitSynchronization:00000000 $t
C:\Users\aniru.000\AppData\Local\Temp\ccGZAzIF.s:2977   .text.HAL_RCCEx_CRSWaitSynchronization:00000000 HAL_RCCEx_CRSWaitSynchronization
C:\Users\aniru.000\AppData\Local\Temp\ccGZAzIF.s:3164   .text.HAL_RCCEx_CRSWaitSynchronization:000000a8 $d
C:\Users\aniru.000\AppData\Local\Temp\ccGZAzIF.s:3169   .text.HAL_RCCEx_CRS_SyncOkCallback:00000000 $t
C:\Users\aniru.000\AppData\Local\Temp\ccGZAzIF.s:3175   .text.HAL_RCCEx_CRS_SyncOkCallback:00000000 HAL_RCCEx_CRS_SyncOkCallback
C:\Users\aniru.000\AppData\Local\Temp\ccGZAzIF.s:3188   .text.HAL_RCCEx_CRS_SyncWarnCallback:00000000 $t
C:\Users\aniru.000\AppData\Local\Temp\ccGZAzIF.s:3194   .text.HAL_RCCEx_CRS_SyncWarnCallback:00000000 HAL_RCCEx_CRS_SyncWarnCallback
C:\Users\aniru.000\AppData\Local\Temp\ccGZAzIF.s:3207   .text.HAL_RCCEx_CRS_ExpectedSyncCallback:00000000 $t
C:\Users\aniru.000\AppData\Local\Temp\ccGZAzIF.s:3213   .text.HAL_RCCEx_CRS_ExpectedSyncCallback:00000000 HAL_RCCEx_CRS_ExpectedSyncCallback
C:\Users\aniru.000\AppData\Local\Temp\ccGZAzIF.s:3226   .text.HAL_RCCEx_CRS_ErrorCallback:00000000 $t
C:\Users\aniru.000\AppData\Local\Temp\ccGZAzIF.s:3232   .text.HAL_RCCEx_CRS_ErrorCallback:00000000 HAL_RCCEx_CRS_ErrorCallback
ARM GAS  C:\Users\aniru.000\AppData\Local\Temp\ccGZAzIF.s 			page 106


C:\Users\aniru.000\AppData\Local\Temp\ccGZAzIF.s:3247   .text.HAL_RCCEx_CRS_IRQHandler:00000000 $t
C:\Users\aniru.000\AppData\Local\Temp\ccGZAzIF.s:3253   .text.HAL_RCCEx_CRS_IRQHandler:00000000 HAL_RCCEx_CRS_IRQHandler
C:\Users\aniru.000\AppData\Local\Temp\ccGZAzIF.s:3391   .text.HAL_RCCEx_CRS_IRQHandler:00000084 $d

UNDEFINED SYMBOLS
HAL_GetTick
HAL_RCC_GetPCLK2Freq
HAL_RCC_GetSysClockFreq
HAL_RCC_GetPCLK1Freq
HAL_GPIO_Init
HAL_PWR_EnableBkUpAccess
HAL_PWR_DisableBkUpAccess
