ARM GAS  C:\Users\aniru.000\AppData\Local\Temp\ccvhr47h.s 			page 1


   1              		.cpu cortex-m4
   2              		.arch armv7e-m
   3              		.fpu fpv4-sp-d16
   4              		.eabi_attribute 27, 1
   5              		.eabi_attribute 28, 1
   6              		.eabi_attribute 20, 1
   7              		.eabi_attribute 21, 1
   8              		.eabi_attribute 23, 3
   9              		.eabi_attribute 24, 1
  10              		.eabi_attribute 25, 1
  11              		.eabi_attribute 26, 1
  12              		.eabi_attribute 30, 1
  13              		.eabi_attribute 34, 1
  14              		.eabi_attribute 18, 4
  15              		.file	"stm32g4xx_hal_gpio.c"
  16              		.text
  17              		.section	.text.HAL_GPIO_Init,"ax",%progbits
  18              		.align	1
  19              		.global	HAL_GPIO_Init
  20              		.syntax unified
  21              		.thumb
  22              		.thumb_func
  24              	HAL_GPIO_Init:
  25              		@ args = 0, pretend = 0, frame = 8
  26              		@ frame_needed = 0, uses_anonymous_args = 0
  27 0000 70B5     		push	{r4, r5, r6, lr}
  28 0002 82B0     		sub	sp, sp, #8
  29 0004 0023     		movs	r3, #0
  30 0006 6DE0     		b	.L2
  31              	.L22:
  32 0008 8568     		ldr	r5, [r0, #8]
  33 000a 4FEA430E 		lsl	lr, r3, #1
  34 000e 0324     		movs	r4, #3
  35 0010 04FA0EF4 		lsl	r4, r4, lr
  36 0014 25EA0405 		bic	r5, r5, r4
  37 0018 CC68     		ldr	r4, [r1, #12]
  38 001a 04FA0EF4 		lsl	r4, r4, lr
  39 001e 2C43     		orrs	r4, r4, r5
  40 0020 8460     		str	r4, [r0, #8]
  41 0022 4468     		ldr	r4, [r0, #4]
  42 0024 24EA0C04 		bic	r4, r4, ip
  43 0028 4D68     		ldr	r5, [r1, #4]
  44 002a C5F3001C 		ubfx	ip, r5, #4, #1
  45 002e 0CFA03FC 		lsl	ip, ip, r3
  46 0032 4CEA0404 		orr	r4, ip, r4
  47 0036 4460     		str	r4, [r0, #4]
  48 0038 68E0     		b	.L4
  49              	.L23:
  50 003a 8C68     		ldr	r4, [r1, #8]
  51 003c 012C     		cmp	r4, #1
  52 003e 6BD1     		bne	.L5
  53 0040 78E0     		b	.L6
  54              	.L24:
  55 0042 DD08     		lsrs	r5, r3, #3
  56 0044 0835     		adds	r5, r5, #8
  57 0046 50F82540 		ldr	r4, [r0, r5, lsl #2]
  58 004a 03F0070C 		and	ip, r3, #7
ARM GAS  C:\Users\aniru.000\AppData\Local\Temp\ccvhr47h.s 			page 2


  59 004e 4FEA8C0C 		lsl	ip, ip, #2
  60 0052 4FF00F0E 		mov	lr, #15
  61 0056 0EFA0CFE 		lsl	lr, lr, ip
  62 005a 24EA0E0E 		bic	lr, r4, lr
  63 005e 0C69     		ldr	r4, [r1, #16]
  64 0060 04FA0CF4 		lsl	r4, r4, ip
  65 0064 44EA0E04 		orr	r4, r4, lr
  66 0068 40F82540 		str	r4, [r0, r5, lsl #2]
  67 006c 68E0     		b	.L7
  68              	.L25:
  69 006e 0524     		movs	r4, #5
  70 0070 00E0     		b	.L8
  71              	.L14:
  72 0072 0024     		movs	r4, #0
  73              	.L8:
  74 0074 04FA0EF4 		lsl	r4, r4, lr
  75 0078 2C43     		orrs	r4, r4, r5
  76 007a 0CF1020C 		add	ip, ip, #2
  77 007e 594D     		ldr	r5, .L26
  78 0080 45F82C40 		str	r4, [r5, ip, lsl #2]
  79 0084 584C     		ldr	r4, .L26+4
  80 0086 A468     		ldr	r4, [r4, #8]
  81 0088 6FEA020C 		mvn	ip, r2
  82 008c 24EA0205 		bic	r5, r4, r2
  83 0090 4E68     		ldr	r6, [r1, #4]
  84 0092 16F4801F 		tst	r6, #1048576
  85 0096 01D0     		beq	.L9
  86 0098 42EA0405 		orr	r5, r2, r4
  87              	.L9:
  88 009c 524C     		ldr	r4, .L26+4
  89 009e A560     		str	r5, [r4, #8]
  90 00a0 E468     		ldr	r4, [r4, #12]
  91 00a2 0CEA0405 		and	r5, ip, r4
  92 00a6 4E68     		ldr	r6, [r1, #4]
  93 00a8 16F4001F 		tst	r6, #2097152
  94 00ac 01D0     		beq	.L10
  95 00ae 42EA0405 		orr	r5, r2, r4
  96              	.L10:
  97 00b2 4D4C     		ldr	r4, .L26+4
  98 00b4 E560     		str	r5, [r4, #12]
  99 00b6 6468     		ldr	r4, [r4, #4]
 100 00b8 0CEA0405 		and	r5, ip, r4
 101 00bc 4E68     		ldr	r6, [r1, #4]
 102 00be 16F4003F 		tst	r6, #131072
 103 00c2 01D0     		beq	.L11
 104 00c4 42EA0405 		orr	r5, r2, r4
 105              	.L11:
 106 00c8 474C     		ldr	r4, .L26+4
 107 00ca 6560     		str	r5, [r4, #4]
 108 00cc 2468     		ldr	r4, [r4]
 109 00ce 0CEA0405 		and	r5, ip, r4
 110 00d2 4E68     		ldr	r6, [r1, #4]
 111 00d4 16F4803F 		tst	r6, #65536
 112 00d8 01D0     		beq	.L12
 113 00da 42EA0405 		orr	r5, r2, r4
 114              	.L12:
 115 00de 424A     		ldr	r2, .L26+4
ARM GAS  C:\Users\aniru.000\AppData\Local\Temp\ccvhr47h.s 			page 3


 116 00e0 1560     		str	r5, [r2]
 117              	.L3:
 118 00e2 0133     		adds	r3, r3, #1
 119              	.L2:
 120 00e4 0A68     		ldr	r2, [r1]
 121 00e6 32FA03F4 		lsrs	r4, r2, r3
 122 00ea 79D0     		beq	.L21
 123 00ec 4FF0010C 		mov	ip, #1
 124 00f0 0CFA03FC 		lsl	ip, ip, r3
 125 00f4 1CEA0202 		ands	r2, ip, r2
 126 00f8 F3D0     		beq	.L3
 127 00fa 4C68     		ldr	r4, [r1, #4]
 128 00fc 04F0030E 		and	lr, r4, #3
 129 0100 0EF1FF3E 		add	lr, lr, #-1
 130 0104 BEF1010F 		cmp	lr, #1
 131 0108 7FF67EAF 		bls	.L22
 132              	.L4:
 133 010c 4C68     		ldr	r4, [r1, #4]
 134 010e 04F0030C 		and	ip, r4, #3
 135 0112 BCF1030F 		cmp	ip, #3
 136 0116 90D0     		beq	.L23
 137              	.L5:
 138 0118 C568     		ldr	r5, [r0, #12]
 139 011a 5C00     		lsls	r4, r3, #1
 140 011c 4FF0030C 		mov	ip, #3
 141 0120 0CFA04FC 		lsl	ip, ip, r4
 142 0124 25EA0C0E 		bic	lr, r5, ip
 143 0128 8D68     		ldr	r5, [r1, #8]
 144 012a 05FA04FC 		lsl	ip, r5, r4
 145 012e 4CEA0E04 		orr	r4, ip, lr
 146 0132 C460     		str	r4, [r0, #12]
 147              	.L6:
 148 0134 4C68     		ldr	r4, [r1, #4]
 149 0136 04F0030C 		and	ip, r4, #3
 150 013a BCF1020F 		cmp	ip, #2
 151 013e 80D0     		beq	.L24
 152              	.L7:
 153 0140 0568     		ldr	r5, [r0]
 154 0142 5C00     		lsls	r4, r3, #1
 155 0144 4FF0030C 		mov	ip, #3
 156 0148 0CFA04FC 		lsl	ip, ip, r4
 157 014c 25EA0C0E 		bic	lr, r5, ip
 158 0150 4D68     		ldr	r5, [r1, #4]
 159 0152 05F0030C 		and	ip, r5, #3
 160 0156 0CFA04FC 		lsl	ip, ip, r4
 161 015a 4CEA0E04 		orr	r4, ip, lr
 162 015e 0460     		str	r4, [r0]
 163 0160 4C68     		ldr	r4, [r1, #4]
 164 0162 14F4403F 		tst	r4, #196608
 165 0166 BCD0     		beq	.L3
 166 0168 204C     		ldr	r4, .L26+8
 167 016a 256E     		ldr	r5, [r4, #96]
 168 016c 45F00105 		orr	r5, r5, #1
 169 0170 2566     		str	r5, [r4, #96]
 170 0172 246E     		ldr	r4, [r4, #96]
 171 0174 04F00104 		and	r4, r4, #1
 172 0178 0194     		str	r4, [sp, #4]
ARM GAS  C:\Users\aniru.000\AppData\Local\Temp\ccvhr47h.s 			page 4


 173 017a 019C     		ldr	r4, [sp, #4]
 174 017c 4FEA930C 		lsr	ip, r3, #2
 175 0180 0CF10205 		add	r5, ip, #2
 176 0184 174C     		ldr	r4, .L26
 177 0186 54F82550 		ldr	r5, [r4, r5, lsl #2]
 178 018a 03F0030E 		and	lr, r3, #3
 179 018e 4FEA8E0E 		lsl	lr, lr, #2
 180 0192 0F24     		movs	r4, #15
 181 0194 04FA0EF4 		lsl	r4, r4, lr
 182 0198 25EA0405 		bic	r5, r5, r4
 183 019c B0F1904F 		cmp	r0, #1207959552
 184 01a0 3FF467AF 		beq	.L14
 185 01a4 124C     		ldr	r4, .L26+12
 186 01a6 A042     		cmp	r0, r4
 187 01a8 12D0     		beq	.L15
 188 01aa 04F58064 		add	r4, r4, #1024
 189 01ae A042     		cmp	r0, r4
 190 01b0 10D0     		beq	.L16
 191 01b2 04F58064 		add	r4, r4, #1024
 192 01b6 A042     		cmp	r0, r4
 193 01b8 0ED0     		beq	.L17
 194 01ba 04F58064 		add	r4, r4, #1024
 195 01be A042     		cmp	r0, r4
 196 01c0 0CD0     		beq	.L18
 197 01c2 04F58064 		add	r4, r4, #1024
 198 01c6 A042     		cmp	r0, r4
 199 01c8 3FF451AF 		beq	.L25
 200 01cc 0624     		movs	r4, #6
 201 01ce 51E7     		b	.L8
 202              	.L15:
 203 01d0 0124     		movs	r4, #1
 204 01d2 4FE7     		b	.L8
 205              	.L16:
 206 01d4 0224     		movs	r4, #2
 207 01d6 4DE7     		b	.L8
 208              	.L17:
 209 01d8 0324     		movs	r4, #3
 210 01da 4BE7     		b	.L8
 211              	.L18:
 212 01dc 0424     		movs	r4, #4
 213 01de 49E7     		b	.L8
 214              	.L21:
 215 01e0 02B0     		add	sp, sp, #8
 216              		@ sp needed
 217 01e2 70BD     		pop	{r4, r5, r6, pc}
 218              	.L27:
 219              		.align	2
 220              	.L26:
 221 01e4 00000140 		.word	1073807360
 222 01e8 00040140 		.word	1073808384
 223 01ec 00100240 		.word	1073876992
 224 01f0 00040048 		.word	1207960576
 226              		.section	.text.HAL_GPIO_DeInit,"ax",%progbits
 227              		.align	1
 228              		.global	HAL_GPIO_DeInit
 229              		.syntax unified
 230              		.thumb
ARM GAS  C:\Users\aniru.000\AppData\Local\Temp\ccvhr47h.s 			page 5


 231              		.thumb_func
 233              	HAL_GPIO_DeInit:
 234              		@ args = 0, pretend = 0, frame = 0
 235              		@ frame_needed = 0, uses_anonymous_args = 0
 236 0000 0023     		movs	r3, #0
 237 0002 31FA03F2 		lsrs	r2, r1, r3
 238 0006 00F08180 		beq	.L43
 239 000a F0B5     		push	{r4, r5, r6, r7, lr}
 240 000c 2EE0     		b	.L33
 241              	.L46:
 242 000e 0525     		movs	r5, #5
 243 0010 00E0     		b	.L31
 244              	.L34:
 245 0012 0025     		movs	r5, #0
 246              	.L31:
 247 0014 05FA0CF5 		lsl	r5, r5, ip
 248 0018 A542     		cmp	r5, r4
 249 001a 5BD0     		beq	.L44
 250              	.L32:
 251 001c 0468     		ldr	r4, [r0]
 252 001e 5D00     		lsls	r5, r3, #1
 253 0020 4FF0030C 		mov	ip, #3
 254 0024 0CFA05FC 		lsl	ip, ip, r5
 255 0028 44EA0C04 		orr	r4, r4, ip
 256 002c 0460     		str	r4, [r0]
 257 002e 4FEAD30E 		lsr	lr, r3, #3
 258 0032 0EF1080E 		add	lr, lr, #8
 259 0036 50F82E40 		ldr	r4, [r0, lr, lsl #2]
 260 003a 03F00706 		and	r6, r3, #7
 261 003e B600     		lsls	r6, r6, #2
 262 0040 0F25     		movs	r5, #15
 263 0042 B540     		lsls	r5, r5, r6
 264 0044 24EA0504 		bic	r4, r4, r5
 265 0048 40F82E40 		str	r4, [r0, lr, lsl #2]
 266 004c C468     		ldr	r4, [r0, #12]
 267 004e 24EA0C04 		bic	r4, r4, ip
 268 0052 C460     		str	r4, [r0, #12]
 269 0054 4468     		ldr	r4, [r0, #4]
 270 0056 24EA0202 		bic	r2, r4, r2
 271 005a 4260     		str	r2, [r0, #4]
 272 005c 8268     		ldr	r2, [r0, #8]
 273 005e 22EA0C02 		bic	r2, r2, ip
 274 0062 8260     		str	r2, [r0, #8]
 275              	.L30:
 276 0064 0133     		adds	r3, r3, #1
 277 0066 31FA03F2 		lsrs	r2, r1, r3
 278 006a 4ED0     		beq	.L45
 279              	.L33:
 280 006c 0122     		movs	r2, #1
 281 006e 9A40     		lsls	r2, r2, r3
 282 0070 12EA0107 		ands	r7, r2, r1
 283 0074 F6D0     		beq	.L30
 284 0076 4FEA930E 		lsr	lr, r3, #2
 285 007a 0EF10205 		add	r5, lr, #2
 286 007e 244C     		ldr	r4, .L47
 287 0080 54F82540 		ldr	r4, [r4, r5, lsl #2]
 288 0084 03F0030C 		and	ip, r3, #3
ARM GAS  C:\Users\aniru.000\AppData\Local\Temp\ccvhr47h.s 			page 6


 289 0088 4FEA8C0C 		lsl	ip, ip, #2
 290 008c 0F25     		movs	r5, #15
 291 008e 05FA0CF6 		lsl	r6, r5, ip
 292 0092 3440     		ands	r4, r4, r6
 293 0094 B0F1904F 		cmp	r0, #1207959552
 294 0098 BBD0     		beq	.L34
 295 009a 1E4D     		ldr	r5, .L47+4
 296 009c A842     		cmp	r0, r5
 297 009e 11D0     		beq	.L35
 298 00a0 05F58065 		add	r5, r5, #1024
 299 00a4 A842     		cmp	r0, r5
 300 00a6 0FD0     		beq	.L36
 301 00a8 05F58065 		add	r5, r5, #1024
 302 00ac A842     		cmp	r0, r5
 303 00ae 0DD0     		beq	.L37
 304 00b0 05F58065 		add	r5, r5, #1024
 305 00b4 A842     		cmp	r0, r5
 306 00b6 0BD0     		beq	.L38
 307 00b8 05F58065 		add	r5, r5, #1024
 308 00bc A842     		cmp	r0, r5
 309 00be A6D0     		beq	.L46
 310 00c0 0625     		movs	r5, #6
 311 00c2 A7E7     		b	.L31
 312              	.L35:
 313 00c4 0125     		movs	r5, #1
 314 00c6 A5E7     		b	.L31
 315              	.L36:
 316 00c8 0225     		movs	r5, #2
 317 00ca A3E7     		b	.L31
 318              	.L37:
 319 00cc 0325     		movs	r5, #3
 320 00ce A1E7     		b	.L31
 321              	.L38:
 322 00d0 0425     		movs	r5, #4
 323 00d2 9FE7     		b	.L31
 324              	.L44:
 325 00d4 104C     		ldr	r4, .L47+8
 326 00d6 2568     		ldr	r5, [r4]
 327 00d8 25EA0705 		bic	r5, r5, r7
 328 00dc 2560     		str	r5, [r4]
 329 00de 6568     		ldr	r5, [r4, #4]
 330 00e0 25EA0705 		bic	r5, r5, r7
 331 00e4 6560     		str	r5, [r4, #4]
 332 00e6 E568     		ldr	r5, [r4, #12]
 333 00e8 25EA0705 		bic	r5, r5, r7
 334 00ec E560     		str	r5, [r4, #12]
 335 00ee A568     		ldr	r5, [r4, #8]
 336 00f0 25EA0705 		bic	r5, r5, r7
 337 00f4 A560     		str	r5, [r4, #8]
 338 00f6 064F     		ldr	r7, .L47
 339 00f8 0EF10204 		add	r4, lr, #2
 340 00fc 57F82450 		ldr	r5, [r7, r4, lsl #2]
 341 0100 25EA0605 		bic	r5, r5, r6
 342 0104 47F82450 		str	r5, [r7, r4, lsl #2]
 343 0108 88E7     		b	.L32
 344              	.L45:
 345 010a F0BD     		pop	{r4, r5, r6, r7, pc}
ARM GAS  C:\Users\aniru.000\AppData\Local\Temp\ccvhr47h.s 			page 7


 346              	.L43:
 347 010c 7047     		bx	lr
 348              	.L48:
 349 010e 00BF     		.align	2
 350              	.L47:
 351 0110 00000140 		.word	1073807360
 352 0114 00040048 		.word	1207960576
 353 0118 00040140 		.word	1073808384
 355              		.section	.text.HAL_GPIO_ReadPin,"ax",%progbits
 356              		.align	1
 357              		.global	HAL_GPIO_ReadPin
 358              		.syntax unified
 359              		.thumb
 360              		.thumb_func
 362              	HAL_GPIO_ReadPin:
 363              		@ args = 0, pretend = 0, frame = 0
 364              		@ frame_needed = 0, uses_anonymous_args = 0
 365              		@ link register save eliminated.
 366 0000 0369     		ldr	r3, [r0, #16]
 367 0002 1942     		tst	r1, r3
 368 0004 01D0     		beq	.L51
 369 0006 0120     		movs	r0, #1
 370 0008 7047     		bx	lr
 371              	.L51:
 372 000a 0020     		movs	r0, #0
 373 000c 7047     		bx	lr
 375              		.section	.text.HAL_GPIO_WritePin,"ax",%progbits
 376              		.align	1
 377              		.global	HAL_GPIO_WritePin
 378              		.syntax unified
 379              		.thumb
 380              		.thumb_func
 382              	HAL_GPIO_WritePin:
 383              		@ args = 0, pretend = 0, frame = 0
 384              		@ frame_needed = 0, uses_anonymous_args = 0
 385              		@ link register save eliminated.
 386 0000 0AB1     		cbz	r2, .L53
 387 0002 8161     		str	r1, [r0, #24]
 388 0004 7047     		bx	lr
 389              	.L53:
 390 0006 8162     		str	r1, [r0, #40]
 391 0008 7047     		bx	lr
 393              		.section	.text.HAL_GPIO_TogglePin,"ax",%progbits
 394              		.align	1
 395              		.global	HAL_GPIO_TogglePin
 396              		.syntax unified
 397              		.thumb
 398              		.thumb_func
 400              	HAL_GPIO_TogglePin:
 401              		@ args = 0, pretend = 0, frame = 0
 402              		@ frame_needed = 0, uses_anonymous_args = 0
 403              		@ link register save eliminated.
 404 0000 4369     		ldr	r3, [r0, #20]
 405 0002 01EA0302 		and	r2, r1, r3
 406 0006 21EA0301 		bic	r1, r1, r3
 407 000a 41EA0241 		orr	r1, r1, r2, lsl #16
 408 000e 8161     		str	r1, [r0, #24]
ARM GAS  C:\Users\aniru.000\AppData\Local\Temp\ccvhr47h.s 			page 8


 409 0010 7047     		bx	lr
 411              		.section	.text.HAL_GPIO_LockPin,"ax",%progbits
 412              		.align	1
 413              		.global	HAL_GPIO_LockPin
 414              		.syntax unified
 415              		.thumb
 416              		.thumb_func
 418              	HAL_GPIO_LockPin:
 419              		@ args = 0, pretend = 0, frame = 8
 420              		@ frame_needed = 0, uses_anonymous_args = 0
 421              		@ link register save eliminated.
 422 0000 82B0     		sub	sp, sp, #8
 423 0002 4FF48033 		mov	r3, #65536
 424 0006 0193     		str	r3, [sp, #4]
 425 0008 019B     		ldr	r3, [sp, #4]
 426 000a 0B43     		orrs	r3, r3, r1
 427 000c 0193     		str	r3, [sp, #4]
 428 000e 019B     		ldr	r3, [sp, #4]
 429 0010 C361     		str	r3, [r0, #28]
 430 0012 C161     		str	r1, [r0, #28]
 431 0014 019B     		ldr	r3, [sp, #4]
 432 0016 C361     		str	r3, [r0, #28]
 433 0018 C369     		ldr	r3, [r0, #28]
 434 001a 0193     		str	r3, [sp, #4]
 435 001c C369     		ldr	r3, [r0, #28]
 436 001e 13F4803F 		tst	r3, #65536
 437 0022 02D0     		beq	.L58
 438 0024 0020     		movs	r0, #0
 439              	.L57:
 440 0026 02B0     		add	sp, sp, #8
 441              		@ sp needed
 442 0028 7047     		bx	lr
 443              	.L58:
 444 002a 0120     		movs	r0, #1
 445 002c FBE7     		b	.L57
 447              		.section	.text.HAL_GPIO_EXTI_Callback,"ax",%progbits
 448              		.align	1
 449              		.weak	HAL_GPIO_EXTI_Callback
 450              		.syntax unified
 451              		.thumb
 452              		.thumb_func
 454              	HAL_GPIO_EXTI_Callback:
 455              		@ args = 0, pretend = 0, frame = 0
 456              		@ frame_needed = 0, uses_anonymous_args = 0
 457              		@ link register save eliminated.
 458 0000 7047     		bx	lr
 460              		.section	.text.HAL_GPIO_EXTI_IRQHandler,"ax",%progbits
 461              		.align	1
 462              		.global	HAL_GPIO_EXTI_IRQHandler
 463              		.syntax unified
 464              		.thumb
 465              		.thumb_func
 467              	HAL_GPIO_EXTI_IRQHandler:
 468              		@ args = 0, pretend = 0, frame = 0
 469              		@ frame_needed = 0, uses_anonymous_args = 0
 470 0000 08B5     		push	{r3, lr}
 471 0002 054B     		ldr	r3, .L65
ARM GAS  C:\Users\aniru.000\AppData\Local\Temp\ccvhr47h.s 			page 9


 472 0004 5B69     		ldr	r3, [r3, #20]
 473 0006 0342     		tst	r3, r0
 474 0008 00D1     		bne	.L64
 475              	.L61:
 476 000a 08BD     		pop	{r3, pc}
 477              	.L64:
 478 000c 024B     		ldr	r3, .L65
 479 000e 5861     		str	r0, [r3, #20]
 480 0010 FFF7FEFF 		bl	HAL_GPIO_EXTI_Callback
 481 0014 F9E7     		b	.L61
 482              	.L66:
 483 0016 00BF     		.align	2
 484              	.L65:
 485 0018 00040140 		.word	1073808384
 487              		.ident	"GCC: (xPack GNU Arm Embedded GCC x86_64) 15.2.1 20251203"
ARM GAS  C:\Users\aniru.000\AppData\Local\Temp\ccvhr47h.s 			page 10

